

Microchip MPLAB XC8 Assembler V3.00 build 20241204225717 
                                                                                               Wed Nov 12 23:25:29 2025

Microchip MPLAB XC8 C Compiler v3.00 (Free license) build 20241204225717 Og1 
     1                           	processor	18F4550
     2                           	fnconf	rparam,??,?,0
     3                           	pagewidth 120
     4                           	opt	flic
     5                           	psect	smallconst,global,reloc=2,class=SMALLCONST,space=0,delta=1,noexec
     6                           	psect	cinit,global,reloc=2,class=CODE,space=0,delta=1
     7                           	psect	bssCOMRAM,global,class=COMRAM,space=1,delta=1,lowdata,noexec
     8                           	psect	bssBANK0,global,class=BANK0,space=1,delta=1,lowdata,noexec
     9                           	psect	cstackCOMRAM,global,class=COMRAM,space=1,delta=1,lowdata,noexec
    10                           	psect	text0,global,reloc=2,class=CODE,space=0,delta=1
    11                           	psect	text1,global,reloc=2,class=CODE,space=0,delta=1
    12                           	psect	text2,global,reloc=2,class=CODE,space=0,delta=1,group=2
    13                           	psect	text3,global,reloc=2,class=CODE,space=0,delta=1,group=2
    14                           	psect	text4,global,reloc=2,class=CODE,space=0,delta=1
    15                           	psect	text5,global,reloc=2,class=CODE,space=0,delta=1
    16                           	psect	text6,global,reloc=2,class=CODE,space=0,delta=1
    17                           	psect	text7,global,reloc=2,class=CODE,space=0,delta=1
    18                           	psect	text8,global,reloc=2,class=CODE,space=0,delta=1
    19                           	psect	text9,global,reloc=2,class=CODE,space=0,delta=1
    20                           	psect	text10,global,reloc=2,class=CODE,space=0,delta=1,group=3
    21                           	psect	text11,global,reloc=2,class=CODE,space=0,delta=1,group=1
    22                           	psect	text12,global,reloc=2,class=CODE,space=0,delta=1,group=1
    23                           	psect	text13,global,reloc=2,class=CODE,space=0,delta=1,group=1
    24                           	psect	text14,global,reloc=2,class=CODE,space=0,delta=1,group=1
    25                           	psect	text15,global,reloc=2,class=CODE,space=0,delta=1,group=3
    26                           	psect	text16,global,reloc=2,class=CODE,space=0,delta=1,group=3
    27                           	psect	text17,global,reloc=2,class=CODE,space=0,delta=1,group=3
    28                           	psect	text18,global,reloc=2,class=CODE,space=0,delta=1,group=2
    29                           	psect	text19,global,reloc=2,class=CODE,space=0,delta=1,group=2
    30                           	psect	text20,global,reloc=2,class=CODE,space=0,delta=1,group=1
    31                           	psect	text21,global,reloc=2,class=CODE,space=0,delta=1
    32                           	psect	text22,global,reloc=2,class=CODE,space=0,delta=1
    33                           	psect	text23,global,reloc=2,class=CODE,space=0,delta=1
    34                           	psect	text24,global,reloc=2,class=CODE,space=0,delta=1
    35                           	psect	text25,global,reloc=2,class=CODE,space=0,delta=1
    36                           	psect	intsave_regs,global,class=BIGRAM,space=1,delta=1,noexec
    37                           	psect	rparam,global,class=COMRAM,space=1,delta=1,noexec
    38                           	psect	idloc,global,abs,ovrld,class=IDLOC,space=5,delta=1,noexec
    39                           	psect	config,global,abs,ovrld,class=CONFIG,space=4,delta=1,noexec
    40   000000                     
    41                           ; Generated 05/12/2024 GMT
    42                           ; 
    43                           ; Copyright © 2024, Microchip Technology Inc. and its subsidiaries ("Microchip")
    44                           ; All rights reserved.
    45                           ; 
    46                           ; This software is developed by Microchip Technology Inc. and its subsidiaries ("Microch
      +                          ip").
    47                           ; 
    48                           ; Redistribution and use in source and binary forms, with or without modification, are
    49                           ; permitted provided that the following conditions are met:
    50                           ; 
    51                           ;     1. Redistributions of source code must retain the above copyright notice, this lis
      +                          t of
    52                           ;        conditions and the following disclaimer.
    53                           ; 
    54                           ;     2. Redistributions in binary form must reproduce the above copyright notice, this 
      +                          list
    55                           ;        of conditions and the following disclaimer in the documentation and/or other
    56                           ;        materials provided with the distribution. Publication is not required when
    57                           ;        this file is used in an embedded application.
    58                           ; 
    59                           ;     3. Microchip's name may not be used to endorse or promote products derived from th
      +                          is
    60                           ;        software without specific prior written permission.
    61                           ; 
    62                           ; THIS SOFTWARE IS PROVIDED BY MICROCHIP "AS IS" AND ANY EXPRESS OR IMPLIED WARRANTIES,
    63                           ; INCLUDING, BUT NOT LIMITED TO, THE IMPLIED WARRANTIES OF MERCHANTABILITY AND FITNESS F
      +                          OR
    64                           ; PURPOSE ARE DISCLAIMED.  IN NO EVENT SHALL MICROCHIP BE LIABLE FOR ANY DIRECT, INDIREC
      +                          T,
    65                           ; INCIDENTAL, SPECIAL, EXEMPLARY, OR CONSEQUENTIAL DAMAGES (INCLUDING BUT NOT LIMITED TO
    66                           ; PROCUREMENT OF SUBSTITUTE GOODS OR SERVICES; LOSS OF USE, DATA OR PROFITS; OR BUSINESS
    67                           ; INTERRUPTION) HOWSOEVER CAUSED AND ON ANY THEORY OF LIABILITY, WHETHER IN CONTRACT, ST
      +                          RICT
    68                           ; LIABILITY, OR TORT (INCLUDING NEGLIGENCE OR OTHERWISE) ARISING IN ANY WAY OUT OF THE U
      +                          SE OF
    69                           ; THIS SOFTWARE, EVEN IF ADVISED OF THE POSSIBILITY OF SUCH DAMAGE.
    70                           ; 
    71                           ; 
    72                           ; Code-generator required, PIC18F4550 Definitions
    73                           ; 
    74                           ; SFR Addresses
    75   000FE0                     bsr             equ	4064
    76   000FE9                     fsr0            equ	4073
    77   000FEA                     fsr0h           equ	4074
    78   000FE9                     fsr0l           equ	4073
    79   000FE1                     fsr1            equ	4065
    80   000FE2                     fsr1h           equ	4066
    81   000FE1                     fsr1l           equ	4065
    82   000FD9                     fsr2            equ	4057
    83   000FDA                     fsr2h           equ	4058
    84   000FD9                     fsr2l           equ	4057
    85   000FEF                     indf0           equ	4079
    86   000FE7                     indf1           equ	4071
    87   000FDF                     indf2           equ	4063
    88   000FF2                     intcon          equ	4082
    89   000000                     nvmcon          equ	0
    90   000FF9                     pcl             equ	4089
    91   000FFA                     pclath          equ	4090
    92   000FFB                     pclatu          equ	4091
    93   000FEB                     plusw0          equ	4075
    94   000FE3                     plusw1          equ	4067
    95   000FDB                     plusw2          equ	4059
    96   000FED                     postdec0        equ	4077
    97   000FE5                     postdec1        equ	4069
    98   000FDD                     postdec2        equ	4061
    99   000FEE                     postinc0        equ	4078
   100   000FE6                     postinc1        equ	4070
   101   000FDE                     postinc2        equ	4062
   102   000FEC                     preinc0         equ	4076
   103   000FE4                     preinc1         equ	4068
   104   000FDC                     preinc2         equ	4060
   105   000FF3                     prod            equ	4083
   106   000FF4                     prodh           equ	4084
   107   000FF3                     prodl           equ	4083
   108   000FD8                     status          equ	4056
   109   000FF5                     tablat          equ	4085
   110   000FF6                     tblptr          equ	4086
   111   000FF7                     tblptrh         equ	4087
   112   000FF6                     tblptrl         equ	4086
   113   000FF8                     tblptru         equ	4088
   114   000FFD                     tosl            equ	4093
   115   000FE8                     wreg            equ	4072
   116   000F62                     SPPDATA         equ	3938	;# 
   117   000F63                     SPPCFG          equ	3939	;# 
   118   000F64                     SPPEPS          equ	3940	;# 
   119   000F65                     SPPCON          equ	3941	;# 
   120   000F66                     UFRM            equ	3942	;# 
   121   000F66                     UFRML           equ	3942	;# 
   122   000F67                     UFRMH           equ	3943	;# 
   123   000F68                     UIR             equ	3944	;# 
   124   000F69                     UIE             equ	3945	;# 
   125   000F6A                     UEIR            equ	3946	;# 
   126   000F6B                     UEIE            equ	3947	;# 
   127   000F6C                     USTAT           equ	3948	;# 
   128   000F6D                     UCON            equ	3949	;# 
   129   000F6E                     UADDR           equ	3950	;# 
   130   000F6F                     UCFG            equ	3951	;# 
   131   000F70                     UEP0            equ	3952	;# 
   132   000F71                     UEP1            equ	3953	;# 
   133   000F72                     UEP2            equ	3954	;# 
   134   000F73                     UEP3            equ	3955	;# 
   135   000F74                     UEP4            equ	3956	;# 
   136   000F75                     UEP5            equ	3957	;# 
   137   000F76                     UEP6            equ	3958	;# 
   138   000F77                     UEP7            equ	3959	;# 
   139   000F78                     UEP8            equ	3960	;# 
   140   000F79                     UEP9            equ	3961	;# 
   141   000F7A                     UEP10           equ	3962	;# 
   142   000F7B                     UEP11           equ	3963	;# 
   143   000F7C                     UEP12           equ	3964	;# 
   144   000F7D                     UEP13           equ	3965	;# 
   145   000F7E                     UEP14           equ	3966	;# 
   146   000F7F                     UEP15           equ	3967	;# 
   147   000F80                     PORTA           equ	3968	;# 
   148   000F81                     PORTB           equ	3969	;# 
   149   000F82                     PORTC           equ	3970	;# 
   150   000F83                     PORTD           equ	3971	;# 
   151   000F84                     PORTE           equ	3972	;# 
   152   000F89                     LATA            equ	3977	;# 
   153   000F8A                     LATB            equ	3978	;# 
   154   000F8B                     LATC            equ	3979	;# 
   155   000F8C                     LATD            equ	3980	;# 
   156   000F8D                     LATE            equ	3981	;# 
   157   000F92                     TRISA           equ	3986	;# 
   158   000F92                     DDRA            equ	3986	;# 
   159   000F93                     TRISB           equ	3987	;# 
   160   000F93                     DDRB            equ	3987	;# 
   161   000F94                     TRISC           equ	3988	;# 
   162   000F94                     DDRC            equ	3988	;# 
   163   000F95                     TRISD           equ	3989	;# 
   164   000F95                     DDRD            equ	3989	;# 
   165   000F96                     TRISE           equ	3990	;# 
   166   000F96                     DDRE            equ	3990	;# 
   167   000F9B                     OSCTUNE         equ	3995	;# 
   168   000F9D                     PIE1            equ	3997	;# 
   169   000F9E                     PIR1            equ	3998	;# 
   170   000F9F                     IPR1            equ	3999	;# 
   171   000FA0                     PIE2            equ	4000	;# 
   172   000FA1                     PIR2            equ	4001	;# 
   173   000FA2                     IPR2            equ	4002	;# 
   174   000FA6                     EECON1          equ	4006	;# 
   175   000FA7                     EECON2          equ	4007	;# 
   176   000FA8                     EEDATA          equ	4008	;# 
   177   000FA9                     EEADR           equ	4009	;# 
   178   000FAB                     RCSTA           equ	4011	;# 
   179   000FAB                     RCSTA1          equ	4011	;# 
   180   000FAC                     TXSTA           equ	4012	;# 
   181   000FAC                     TXSTA1          equ	4012	;# 
   182   000FAD                     TXREG           equ	4013	;# 
   183   000FAD                     TXREG1          equ	4013	;# 
   184   000FAE                     RCREG           equ	4014	;# 
   185   000FAE                     RCREG1          equ	4014	;# 
   186   000FAF                     SPBRG           equ	4015	;# 
   187   000FAF                     SPBRG1          equ	4015	;# 
   188   000FB0                     SPBRGH          equ	4016	;# 
   189   000FB1                     T3CON           equ	4017	;# 
   190   000FB2                     TMR3            equ	4018	;# 
   191   000FB2                     TMR3L           equ	4018	;# 
   192   000FB3                     TMR3H           equ	4019	;# 
   193   000FB4                     CMCON           equ	4020	;# 
   194   000FB5                     CVRCON          equ	4021	;# 
   195   000FB6                     ECCP1AS         equ	4022	;# 
   196   000FB6                     CCP1AS          equ	4022	;# 
   197   000FB7                     ECCP1DEL        equ	4023	;# 
   198   000FB7                     CCP1DEL         equ	4023	;# 
   199   000FB8                     BAUDCON         equ	4024	;# 
   200   000FB8                     BAUDCTL         equ	4024	;# 
   201   000FBA                     CCP2CON         equ	4026	;# 
   202   000FBB                     CCPR2           equ	4027	;# 
   203   000FBB                     CCPR2L          equ	4027	;# 
   204   000FBC                     CCPR2H          equ	4028	;# 
   205   000FBD                     CCP1CON         equ	4029	;# 
   206   000FBD                     ECCP1CON        equ	4029	;# 
   207   000FBE                     CCPR1           equ	4030	;# 
   208   000FBE                     CCPR1L          equ	4030	;# 
   209   000FBF                     CCPR1H          equ	4031	;# 
   210   000FC0                     ADCON2          equ	4032	;# 
   211   000FC1                     ADCON1          equ	4033	;# 
   212   000FC2                     ADCON0          equ	4034	;# 
   213   000FC3                     ADRES           equ	4035	;# 
   214   000FC3                     ADRESL          equ	4035	;# 
   215   000FC4                     ADRESH          equ	4036	;# 
   216   000FC5                     SSPCON2         equ	4037	;# 
   217   000FC6                     SSPCON1         equ	4038	;# 
   218   000FC7                     SSPSTAT         equ	4039	;# 
   219   000FC8                     SSPADD          equ	4040	;# 
   220   000FC9                     SSPBUF          equ	4041	;# 
   221   000FCA                     T2CON           equ	4042	;# 
   222   000FCB                     PR2             equ	4043	;# 
   223   000FCB                     MEMCON          equ	4043	;# 
   224   000FCC                     TMR2            equ	4044	;# 
   225   000FCD                     T1CON           equ	4045	;# 
   226   000FCE                     TMR1            equ	4046	;# 
   227   000FCE                     TMR1L           equ	4046	;# 
   228   000FCF                     TMR1H           equ	4047	;# 
   229   000FD0                     RCON            equ	4048	;# 
   230   000FD1                     WDTCON          equ	4049	;# 
   231   000FD2                     HLVDCON         equ	4050	;# 
   232   000FD2                     LVDCON          equ	4050	;# 
   233   000FD3                     OSCCON          equ	4051	;# 
   234   000FD5                     T0CON           equ	4053	;# 
   235   000FD6                     TMR0            equ	4054	;# 
   236   000FD6                     TMR0L           equ	4054	;# 
   237   000FD7                     TMR0H           equ	4055	;# 
   238   000FD8                     STATUS          equ	4056	;# 
   239   000FD9                     FSR2            equ	4057	;# 
   240   000FD9                     FSR2L           equ	4057	;# 
   241   000FDA                     FSR2H           equ	4058	;# 
   242   000FDB                     PLUSW2          equ	4059	;# 
   243   000FDC                     PREINC2         equ	4060	;# 
   244   000FDD                     POSTDEC2        equ	4061	;# 
   245   000FDE                     POSTINC2        equ	4062	;# 
   246   000FDF                     INDF2           equ	4063	;# 
   247   000FE0                     BSR             equ	4064	;# 
   248   000FE1                     FSR1            equ	4065	;# 
   249   000FE1                     FSR1L           equ	4065	;# 
   250   000FE2                     FSR1H           equ	4066	;# 
   251   000FE3                     PLUSW1          equ	4067	;# 
   252   000FE4                     PREINC1         equ	4068	;# 
   253   000FE5                     POSTDEC1        equ	4069	;# 
   254   000FE6                     POSTINC1        equ	4070	;# 
   255   000FE7                     INDF1           equ	4071	;# 
   256   000FE8                     WREG            equ	4072	;# 
   257   000FE9                     FSR0            equ	4073	;# 
   258   000FE9                     FSR0L           equ	4073	;# 
   259   000FEA                     FSR0H           equ	4074	;# 
   260   000FEB                     PLUSW0          equ	4075	;# 
   261   000FEC                     PREINC0         equ	4076	;# 
   262   000FED                     POSTDEC0        equ	4077	;# 
   263   000FEE                     POSTINC0        equ	4078	;# 
   264   000FEF                     INDF0           equ	4079	;# 
   265   000FF0                     INTCON3         equ	4080	;# 
   266   000FF1                     INTCON2         equ	4081	;# 
   267   000FF2                     INTCON          equ	4082	;# 
   268   000FF3                     PROD            equ	4083	;# 
   269   000FF3                     PRODL           equ	4083	;# 
   270   000FF4                     PRODH           equ	4084	;# 
   271   000FF5                     TABLAT          equ	4085	;# 
   272   000FF6                     TBLPTR          equ	4086	;# 
   273   000FF6                     TBLPTRL         equ	4086	;# 
   274   000FF7                     TBLPTRH         equ	4087	;# 
   275   000FF8                     TBLPTRU         equ	4088	;# 
   276   000FF9                     PCLAT           equ	4089	;# 
   277   000FF9                     PC              equ	4089	;# 
   278   000FF9                     PCL             equ	4089	;# 
   279   000FFA                     PCLATH          equ	4090	;# 
   280   000FFB                     PCLATU          equ	4091	;# 
   281   000FFC                     STKPTR          equ	4092	;# 
   282   000FFD                     TOS             equ	4093	;# 
   283   000FFD                     TOSL            equ	4093	;# 
   284   000FFE                     TOSH            equ	4094	;# 
   285   000FFF                     TOSU            equ	4095	;# 
   286   000F62                     SPPDATA         equ	3938	;# 
   287   000F63                     SPPCFG          equ	3939	;# 
   288   000F64                     SPPEPS          equ	3940	;# 
   289   000F65                     SPPCON          equ	3941	;# 
   290   000F66                     UFRM            equ	3942	;# 
   291   000F66                     UFRML           equ	3942	;# 
   292   000F67                     UFRMH           equ	3943	;# 
   293   000F68                     UIR             equ	3944	;# 
   294   000F69                     UIE             equ	3945	;# 
   295   000F6A                     UEIR            equ	3946	;# 
   296   000F6B                     UEIE            equ	3947	;# 
   297   000F6C                     USTAT           equ	3948	;# 
   298   000F6D                     UCON            equ	3949	;# 
   299   000F6E                     UADDR           equ	3950	;# 
   300   000F6F                     UCFG            equ	3951	;# 
   301   000F70                     UEP0            equ	3952	;# 
   302   000F71                     UEP1            equ	3953	;# 
   303   000F72                     UEP2            equ	3954	;# 
   304   000F73                     UEP3            equ	3955	;# 
   305   000F74                     UEP4            equ	3956	;# 
   306   000F75                     UEP5            equ	3957	;# 
   307   000F76                     UEP6            equ	3958	;# 
   308   000F77                     UEP7            equ	3959	;# 
   309   000F78                     UEP8            equ	3960	;# 
   310   000F79                     UEP9            equ	3961	;# 
   311   000F7A                     UEP10           equ	3962	;# 
   312   000F7B                     UEP11           equ	3963	;# 
   313   000F7C                     UEP12           equ	3964	;# 
   314   000F7D                     UEP13           equ	3965	;# 
   315   000F7E                     UEP14           equ	3966	;# 
   316   000F7F                     UEP15           equ	3967	;# 
   317   000F80                     PORTA           equ	3968	;# 
   318   000F81                     PORTB           equ	3969	;# 
   319   000F82                     PORTC           equ	3970	;# 
   320   000F83                     PORTD           equ	3971	;# 
   321   000F84                     PORTE           equ	3972	;# 
   322   000F89                     LATA            equ	3977	;# 
   323   000F8A                     LATB            equ	3978	;# 
   324   000F8B                     LATC            equ	3979	;# 
   325   000F8C                     LATD            equ	3980	;# 
   326   000F8D                     LATE            equ	3981	;# 
   327   000F92                     TRISA           equ	3986	;# 
   328   000F92                     DDRA            equ	3986	;# 
   329   000F93                     TRISB           equ	3987	;# 
   330   000F93                     DDRB            equ	3987	;# 
   331   000F94                     TRISC           equ	3988	;# 
   332   000F94                     DDRC            equ	3988	;# 
   333   000F95                     TRISD           equ	3989	;# 
   334   000F95                     DDRD            equ	3989	;# 
   335   000F96                     TRISE           equ	3990	;# 
   336   000F96                     DDRE            equ	3990	;# 
   337   000F9B                     OSCTUNE         equ	3995	;# 
   338   000F9D                     PIE1            equ	3997	;# 
   339   000F9E                     PIR1            equ	3998	;# 
   340   000F9F                     IPR1            equ	3999	;# 
   341   000FA0                     PIE2            equ	4000	;# 
   342   000FA1                     PIR2            equ	4001	;# 
   343   000FA2                     IPR2            equ	4002	;# 
   344   000FA6                     EECON1          equ	4006	;# 
   345   000FA7                     EECON2          equ	4007	;# 
   346   000FA8                     EEDATA          equ	4008	;# 
   347   000FA9                     EEADR           equ	4009	;# 
   348   000FAB                     RCSTA           equ	4011	;# 
   349   000FAB                     RCSTA1          equ	4011	;# 
   350   000FAC                     TXSTA           equ	4012	;# 
   351   000FAC                     TXSTA1          equ	4012	;# 
   352   000FAD                     TXREG           equ	4013	;# 
   353   000FAD                     TXREG1          equ	4013	;# 
   354   000FAE                     RCREG           equ	4014	;# 
   355   000FAE                     RCREG1          equ	4014	;# 
   356   000FAF                     SPBRG           equ	4015	;# 
   357   000FAF                     SPBRG1          equ	4015	;# 
   358   000FB0                     SPBRGH          equ	4016	;# 
   359   000FB1                     T3CON           equ	4017	;# 
   360   000FB2                     TMR3            equ	4018	;# 
   361   000FB2                     TMR3L           equ	4018	;# 
   362   000FB3                     TMR3H           equ	4019	;# 
   363   000FB4                     CMCON           equ	4020	;# 
   364   000FB5                     CVRCON          equ	4021	;# 
   365   000FB6                     ECCP1AS         equ	4022	;# 
   366   000FB6                     CCP1AS          equ	4022	;# 
   367   000FB7                     ECCP1DEL        equ	4023	;# 
   368   000FB7                     CCP1DEL         equ	4023	;# 
   369   000FB8                     BAUDCON         equ	4024	;# 
   370   000FB8                     BAUDCTL         equ	4024	;# 
   371   000FBA                     CCP2CON         equ	4026	;# 
   372   000FBB                     CCPR2           equ	4027	;# 
   373   000FBB                     CCPR2L          equ	4027	;# 
   374   000FBC                     CCPR2H          equ	4028	;# 
   375   000FBD                     CCP1CON         equ	4029	;# 
   376   000FBD                     ECCP1CON        equ	4029	;# 
   377   000FBE                     CCPR1           equ	4030	;# 
   378   000FBE                     CCPR1L          equ	4030	;# 
   379   000FBF                     CCPR1H          equ	4031	;# 
   380   000FC0                     ADCON2          equ	4032	;# 
   381   000FC1                     ADCON1          equ	4033	;# 
   382   000FC2                     ADCON0          equ	4034	;# 
   383   000FC3                     ADRES           equ	4035	;# 
   384   000FC3                     ADRESL          equ	4035	;# 
   385   000FC4                     ADRESH          equ	4036	;# 
   386   000FC5                     SSPCON2         equ	4037	;# 
   387   000FC6                     SSPCON1         equ	4038	;# 
   388   000FC7                     SSPSTAT         equ	4039	;# 
   389   000FC8                     SSPADD          equ	4040	;# 
   390   000FC9                     SSPBUF          equ	4041	;# 
   391   000FCA                     T2CON           equ	4042	;# 
   392   000FCB                     PR2             equ	4043	;# 
   393   000FCB                     MEMCON          equ	4043	;# 
   394   000FCC                     TMR2            equ	4044	;# 
   395   000FCD                     T1CON           equ	4045	;# 
   396   000FCE                     TMR1            equ	4046	;# 
   397   000FCE                     TMR1L           equ	4046	;# 
   398   000FCF                     TMR1H           equ	4047	;# 
   399   000FD0                     RCON            equ	4048	;# 
   400   000FD1                     WDTCON          equ	4049	;# 
   401   000FD2                     HLVDCON         equ	4050	;# 
   402   000FD2                     LVDCON          equ	4050	;# 
   403   000FD3                     OSCCON          equ	4051	;# 
   404   000FD5                     T0CON           equ	4053	;# 
   405   000FD6                     TMR0            equ	4054	;# 
   406   000FD6                     TMR0L           equ	4054	;# 
   407   000FD7                     TMR0H           equ	4055	;# 
   408   000FD8                     STATUS          equ	4056	;# 
   409   000FD9                     FSR2            equ	4057	;# 
   410   000FD9                     FSR2L           equ	4057	;# 
   411   000FDA                     FSR2H           equ	4058	;# 
   412   000FDB                     PLUSW2          equ	4059	;# 
   413   000FDC                     PREINC2         equ	4060	;# 
   414   000FDD                     POSTDEC2        equ	4061	;# 
   415   000FDE                     POSTINC2        equ	4062	;# 
   416   000FDF                     INDF2           equ	4063	;# 
   417   000FE0                     BSR             equ	4064	;# 
   418   000FE1                     FSR1            equ	4065	;# 
   419   000FE1                     FSR1L           equ	4065	;# 
   420   000FE2                     FSR1H           equ	4066	;# 
   421   000FE3                     PLUSW1          equ	4067	;# 
   422   000FE4                     PREINC1         equ	4068	;# 
   423   000FE5                     POSTDEC1        equ	4069	;# 
   424   000FE6                     POSTINC1        equ	4070	;# 
   425   000FE7                     INDF1           equ	4071	;# 
   426   000FE8                     WREG            equ	4072	;# 
   427   000FE9                     FSR0            equ	4073	;# 
   428   000FE9                     FSR0L           equ	4073	;# 
   429   000FEA                     FSR0H           equ	4074	;# 
   430   000FEB                     PLUSW0          equ	4075	;# 
   431   000FEC                     PREINC0         equ	4076	;# 
   432   000FED                     POSTDEC0        equ	4077	;# 
   433   000FEE                     POSTINC0        equ	4078	;# 
   434   000FEF                     INDF0           equ	4079	;# 
   435   000FF0                     INTCON3         equ	4080	;# 
   436   000FF1                     INTCON2         equ	4081	;# 
   437   000FF2                     INTCON          equ	4082	;# 
   438   000FF3                     PROD            equ	4083	;# 
   439   000FF3                     PRODL           equ	4083	;# 
   440   000FF4                     PRODH           equ	4084	;# 
   441   000FF5                     TABLAT          equ	4085	;# 
   442   000FF6                     TBLPTR          equ	4086	;# 
   443   000FF6                     TBLPTRL         equ	4086	;# 
   444   000FF7                     TBLPTRH         equ	4087	;# 
   445   000FF8                     TBLPTRU         equ	4088	;# 
   446   000FF9                     PCLAT           equ	4089	;# 
   447   000FF9                     PC              equ	4089	;# 
   448   000FF9                     PCL             equ	4089	;# 
   449   000FFA                     PCLATH          equ	4090	;# 
   450   000FFB                     PCLATU          equ	4091	;# 
   451   000FFC                     STKPTR          equ	4092	;# 
   452   000FFD                     TOS             equ	4093	;# 
   453   000FFD                     TOSL            equ	4093	;# 
   454   000FFE                     TOSH            equ	4094	;# 
   455   000FFF                     TOSU            equ	4095	;# 
   456   000F8D                     _LATEbits       set	3981
   457   000F83                     _PORTD          set	3971
   458   000FC3                     _ADRESL         set	4035
   459   000FC4                     _ADRESH         set	4036
   460   000FC2                     _ADCON0bits     set	4034
   461   000F96                     _TRISEbits      set	3990
   462   000F95                     _TRISD          set	3989
   463   000F8B                     _LATCbits       set	3979
   464   000F94                     _TRISCbits      set	3988
   465   000FC2                     _ADCON0         set	4034
   466   000FC0                     _ADCON2         set	4032
   467   000FC1                     _ADCON1         set	4033
   468   000F92                     _TRISAbits      set	3986
   469                           
   470                           	psect	smallconst
   471   000800                     __psmallconst:
   472                           	callstack 0
   473   000800  00                 	db	0
   474   000801                     STR_1:
   475   000801  54                 	db	84	;'T'
   476   000802  65                 	db	101	;'e'
   477   000803  6D                 	db	109	;'m'
   478   000804  70                 	db	112	;'p'
   479   000805  2E                 	db	46
   480   000806  20                 	db	32
   481   000807  4C                 	db	76	;'L'
   482   000808  4D                 	db	77	;'M'
   483   000809  33                 	db	51	;'3'
   484   00080A  35                 	db	53	;'5'
   485   00080B  3A                 	db	58	;':'
   486   00080C  20                 	db	32
   487   00080D  00                 	db	0
   488   00080E                     STR_4:
   489   00080E  25                 	db	37
   490   00080F  33                 	db	51	;'3'
   491   000810  75                 	db	117	;'u'
   492   000811  2E                 	db	46
   493   000812  25                 	db	37
   494   000813  75                 	db	117	;'u'
   495   000814  00                 	db	0
   496   000815                     STR_3:
   497   000815  43                 	db	67	;'C'
   498   000816  00                 	db	0
   499   00080C                     STR_2           equ	STR_1+11
   500   000817  00                 	db	0	; dummy byte at the end
   501   000800                     __smallconst    set	__psmallconst
   502   000800                     __mediumconst   set	__psmallconst
   503   000002                     __activetblptr  equ	2
   504                           
   505                           ; #config settings
   506                           
   507                           	psect	cinit
   508   0011D4                     __pcinit:
   509                           	callstack 0
   510   0011D4                     start_initialization:
   511                           	callstack 0
   512   0011D4                     __initialization:
   513                           	callstack 0
   514                           
   515                           ; Clear objects allocated to BANK0 (32 bytes)
   516   0011D4  EE00  F060         	lfsr	0,__pbssBANK0
   517   0011D8  0E20               	movlw	32
   518   0011DA                     clear_0:
   519   0011DA  6AEE               	clrf	postinc0,c
   520   0011DC  06E8               	decf	wreg,f,c
   521   0011DE  E1FD               	bnz	clear_0
   522                           
   523                           ; Clear objects allocated to COMRAM (5 bytes)
   524   0011E0  6A59               	clrf	(__pbssCOMRAM+4)& (0+255),c
   525   0011E2  6A58               	clrf	(__pbssCOMRAM+3)& (0+255),c
   526   0011E4  6A57               	clrf	(__pbssCOMRAM+2)& (0+255),c
   527   0011E6  6A56               	clrf	(__pbssCOMRAM+1)& (0+255),c
   528   0011E8  6A55               	clrf	__pbssCOMRAM& (0+255),c
   529   0011EA                     end_of_initialization:
   530                           	callstack 0
   531   0011EA                     __end_of__initialization:
   532                           	callstack 0
   533   0011EA  0E00               	movlw	low (__Lmediumconst shr (0+16))
   534   0011EC  6EF8               	movwf	tblptru,c
   535   0011EE  0100               	movlb	0
   536   0011F0  EF0C  F004         	goto	_main	;jump to C main() function
   537                           
   538                           	psect	bssCOMRAM
   539   000055                     __pbssCOMRAM:
   540                           	callstack 0
   541   000055                     _width:
   542                           	callstack 0
   543   000055                     	ds	2
   544   000057                     _prec:
   545                           	callstack 0
   546   000057                     	ds	2
   547   000059                     _flags:
   548                           	callstack 0
   549   000059                     	ds	1
   550                           
   551                           	psect	bssBANK0
   552   000060                     __pbssBANK0:
   553                           	callstack 0
   554   000060                     _dbuf:
   555                           	callstack 0
   556   000060                     	ds	32
   557                           
   558                           	psect	cstackCOMRAM
   559   000001                     __pcstackCOMRAM:
   560                           	callstack 0
   561   000001                     ?_AD_Read:
   562                           	callstack 0
   563   000001                     ?___lwdiv:
   564                           	callstack 0
   565   000001                     ?___lwmod:
   566                           	callstack 0
   567   000001                     ?_read_prec_or_width:
   568                           	callstack 0
   569   000001                     ?___lmul:
   570                           	callstack 0
   571   000001                     SetDDRamAddr@DDaddr:
   572                           	callstack 0
   573   000001                     WriteCmdXLCD@cmd:
   574                           	callstack 0
   575   000001                     WriteDataXLCD@data:
   576                           	callstack 0
   577   000001                     read_prec_or_width@fmt:
   578                           	callstack 0
   579   000001                     ___lwdiv@dividend:
   580                           	callstack 0
   581   000001                     ___lwmod@dividend:
   582                           	callstack 0
   583   000001                     fputc@c:
   584                           	callstack 0
   585   000001                     ___lmul@multiplier:
   586                           	callstack 0
   587   000001                     ??_DelayPORXLCD:
   588   000001                     ??_DelayXLCD:
   589                           
   590                           ; 1 bytes @ 0x0
   591   000001                     	ds	1
   592   000002                     putrsXLCD@buffer:
   593                           	callstack 0
   594   000002                     putsXLCD@buffer:
   595                           	callstack 0
   596   000002                     read_prec_or_width@ap:
   597                           	callstack 0
   598   000002                     
   599                           ; 1 bytes @ 0x1
   600   000002                     	ds	1
   601   000003                     fputc@fp:
   602                           	callstack 0
   603   000003                     ___lwdiv@divisor:
   604                           	callstack 0
   605   000003                     ___lwmod@divisor:
   606                           	callstack 0
   607   000003                     ??_AD_Read:
   608   000003                     ??_read_prec_or_width:
   609                           
   610                           ; 1 bytes @ 0x2
   611   000003                     	ds	1
   612   000004                     ??_fputc:
   613                           
   614                           ; 1 bytes @ 0x3
   615   000004                     	ds	1
   616   000005                     ___lwmod@counter:
   617                           	callstack 0
   618   000005                     read_prec_or_width@c:
   619                           	callstack 0
   620   000005                     ___lwdiv@quotient:
   621                           	callstack 0
   622   000005                     ___lmul@multiplicand:
   623                           	callstack 0
   624   000005                     
   625                           ; 1 bytes @ 0x4
   626   000005                     	ds	1
   627   000006                     read_prec_or_width@n:
   628                           	callstack 0
   629                           
   630                           ; 2 bytes @ 0x5
   631   000006                     	ds	1
   632   000007                     ___lwdiv@counter:
   633                           	callstack 0
   634                           
   635                           ; 1 bytes @ 0x6
   636   000007                     	ds	2
   637   000009                     fputs@s:
   638                           	callstack 0
   639   000009                     ___lmul@product:
   640                           	callstack 0
   641   000009                     
   642                           ; 1 bytes @ 0x8
   643   000009                     	ds	1
   644   00000A                     fputs@fp:
   645                           	callstack 0
   646                           
   647                           ; 1 bytes @ 0x9
   648   00000A                     	ds	1
   649   00000B                     fputs@c:
   650                           	callstack 0
   651   00000B                     
   652                           ; 1 bytes @ 0xA
   653   00000B                     	ds	1
   654   00000C                     fputs@i:
   655                           	callstack 0
   656                           
   657                           ; 2 bytes @ 0xB
   658   00000C                     	ds	1
   659   00000D                     ?___lldiv:
   660                           	callstack 0
   661   00000D                     ___lldiv@dividend:
   662                           	callstack 0
   663                           
   664                           ; 4 bytes @ 0xC
   665   00000D                     	ds	1
   666   00000E                     pad@fp:
   667                           	callstack 0
   668                           
   669                           ; 1 bytes @ 0xD
   670   00000E                     	ds	1
   671   00000F                     pad@buf:
   672                           	callstack 0
   673                           
   674                           ; 1 bytes @ 0xE
   675   00000F                     	ds	1
   676   000010                     pad@p:
   677                           	callstack 0
   678                           
   679                           ; 2 bytes @ 0xF
   680   000010                     	ds	1
   681   000011                     ___lldiv@divisor:
   682                           	callstack 0
   683                           
   684                           ; 4 bytes @ 0x10
   685   000011                     	ds	1
   686   000012                     ??_pad:
   687                           
   688                           ; 1 bytes @ 0x11
   689   000012                     	ds	1
   690   000013                     pad@i:
   691                           	callstack 0
   692                           
   693                           ; 2 bytes @ 0x12
   694   000013                     	ds	2
   695   000015                     utoa@fp:
   696                           	callstack 0
   697   000015                     ___lldiv@quotient:
   698                           	callstack 0
   699   000015                     
   700                           ; 1 bytes @ 0x14
   701   000015                     	ds	1
   702   000016                     utoa@d:
   703                           	callstack 0
   704                           
   705                           ; 2 bytes @ 0x15
   706   000016                     	ds	2
   707   000018                     utoa@w:
   708                           	callstack 0
   709   000018                     
   710                           ; 1 bytes @ 0x17
   711   000018                     	ds	1
   712   000019                     ___lldiv@counter:
   713                           	callstack 0
   714                           
   715                           ; 1 bytes @ 0x18
   716   000019                     	ds	1
   717   00001A                     utoa@p:
   718                           	callstack 0
   719                           
   720                           ; 1 bytes @ 0x19
   721   00001A                     	ds	1
   722   00001B                     utoa@i:
   723                           	callstack 0
   724                           
   725                           ; 2 bytes @ 0x1A
   726   00001B                     	ds	2
   727   00001D                     vfpfcnvrt@fp:
   728                           	callstack 0
   729                           
   730                           ; 1 bytes @ 0x1C
   731   00001D                     	ds	1
   732   00001E                     vfpfcnvrt@fmt:
   733                           	callstack 0
   734                           
   735                           ; 1 bytes @ 0x1D
   736   00001E                     	ds	1
   737   00001F                     vfpfcnvrt@ap:
   738                           	callstack 0
   739                           
   740                           ; 1 bytes @ 0x1E
   741   00001F                     	ds	1
   742   000020                     vfpfcnvrt@convarg:
   743                           	callstack 0
   744   000020                     
   745                           ; 1 bytes @ 0x1F
   746   000020                     	ds	4
   747   000024                     vfpfcnvrt@cp:
   748                           	callstack 0
   749                           
   750                           ; 1 bytes @ 0x23
   751   000024                     	ds	1
   752   000025                     ?_vfprintf:
   753                           	callstack 0
   754   000025                     vfprintf@fp:
   755                           	callstack 0
   756                           
   757                           ; 1 bytes @ 0x24
   758   000025                     	ds	1
   759   000026                     vfprintf@fmt:
   760                           	callstack 0
   761                           
   762                           ; 1 bytes @ 0x25
   763   000026                     	ds	1
   764   000027                     vfprintf@ap:
   765                           	callstack 0
   766                           
   767                           ; 1 bytes @ 0x26
   768   000027                     	ds	1
   769   000028                     vfprintf@cfmt:
   770                           	callstack 0
   771   000028                     
   772                           ; 1 bytes @ 0x27
   773   000028                     	ds	1
   774   000029                     ?_sprintf:
   775                           	callstack 0
   776   000029                     sprintf@s:
   777                           	callstack 0
   778                           
   779                           ; 1 bytes @ 0x28
   780   000029                     	ds	1
   781   00002A                     sprintf@fmt:
   782                           	callstack 0
   783                           
   784                           ; 1 bytes @ 0x29
   785   00002A                     	ds	5
   786   00002F                     sprintf@ap:
   787                           	callstack 0
   788   00002F                     
   789                           ; 1 bytes @ 0x2E
   790   00002F                     	ds	1
   791   000030                     sprintf@f:
   792                           	callstack 0
   793                           
   794                           ; 11 bytes @ 0x2F
   795   000030                     	ds	11
   796   00003B                     LCD_PutTemperature@num_mili:
   797                           	callstack 0
   798                           
   799                           ; 2 bytes @ 0x3A
   800   00003B                     	ds	2
   801   00003D                     LCD_PutTemperature@buffer:
   802                           	callstack 0
   803                           
   804                           ; 1 bytes @ 0x3C
   805   00003D                     	ds	1
   806   00003E                     LCD_PutTemperature@parte_inteira:
   807                           	callstack 0
   808   00003E                     
   809                           ; 1 bytes @ 0x3D
   810   00003E                     	ds	2
   811   000040                     LCD_PutTemperature@parte_decimal:
   812                           	callstack 0
   813                           
   814                           ; 2 bytes @ 0x3F
   815   000040                     	ds	2
   816   000042                     ??_main:
   817                           
   818                           ; 1 bytes @ 0x41
   819   000042                     	ds	1
   820   000043                     main@buffer:
   821                           	callstack 0
   822                           
   823                           ; 10 bytes @ 0x42
   824   000043                     	ds	10
   825   00004D                     main@ad_value:
   826                           	callstack 0
   827                           
   828                           ; 2 bytes @ 0x4C
   829   00004D                     	ds	2
   830   00004F                     main@i:
   831                           	callstack 0
   832                           
   833                           ; 2 bytes @ 0x4E
   834   00004F                     	ds	2
   835   000051                     main@j:
   836                           	callstack 0
   837                           
   838                           ; 2 bytes @ 0x50
   839   000051                     	ds	2
   840   000053                     main@temp_mili:
   841                           	callstack 0
   842                           
   843                           ; 2 bytes @ 0x52
   844   000053                     	ds	2
   845                           
   846 ;;
   847 ;;Main: autosize = 0, tempsize = 1, incstack = 0, save=0
   848 ;;
   849 ;; *************** function _main *****************
   850 ;; Defined at:
   851 ;;		line 61 in file "C:/Users/Samuka/Downloads/lab4/ex3/src/main.c"
   852 ;; Parameters:    Size  Location     Type
   853 ;;		None
   854 ;; Auto vars:     Size  Location     Type
   855 ;;  j               2   80[COMRAM] int 
   856 ;;  i               2   78[COMRAM] int 
   857 ;;  buffer         10   66[COMRAM] unsigned char [10]
   858 ;;  temp_mili       2   82[COMRAM] unsigned int 
   859 ;;  ad_value        2   76[COMRAM] unsigned int 
   860 ;; Return value:  Size  Location     Type
   861 ;;                  1    wreg      void 
   862 ;; Registers used:
   863 ;;		wreg, fsr1l, fsr1h, fsr2l, fsr2h, status,2, status,0, tblptrl, tblptrh, tblptru, prodl, prodh, cstack
   864 ;; Tracked objects:
   865 ;;		On entry : 0/0
   866 ;;		On exit  : 0/0
   867 ;;		Unchanged: 0/0
   868 ;; Data sizes:     COMRAM   BANK0   BANK1   BANK2   BANK3   BANK4   BANK5   BANK6   BANK7
   869 ;;      Params:         0       0       0       0       0       0       0       0       0
   870 ;;      Locals:        18       0       0       0       0       0       0       0       0
   871 ;;      Temps:          1       0       0       0       0       0       0       0       0
   872 ;;      Totals:        19       0       0       0       0       0       0       0       0
   873 ;;Total ram usage:       19 bytes
   874 ;; Hardware stack levels required when called: 9
   875 ;; This function calls:
   876 ;;		_AD_Read
   877 ;;		_BusyXLCD
   878 ;;		_DelayFor18TCY
   879 ;;		_DelayPORXLCD
   880 ;;		_LCD_PutTemperature
   881 ;;		_OpenXLCD
   882 ;;		_SetDDRamAddr
   883 ;;		_WriteCmdXLCD
   884 ;;		_WriteDataXLCD
   885 ;;		___lldiv
   886 ;;		___lmul
   887 ;;		_putrsXLCD
   888 ;; This function is called by:
   889 ;;		Startup code after reset
   890 ;; This function uses a non-reentrant model
   891 ;;
   892                           
   893                           	psect	text0
   894   000818                     __ptext0:
   895                           	callstack 0
   896   000818                     _main:
   897                           	callstack 22
   898   000818                     
   899                           ;C:/Users/Samuka/Downloads/lab4/ex3/src/main.c: 62:         temp_mili = (unsigned int)((
      +                          (unsigned long)ad_value * 5000UL) / 1023UL);;C:/Users/Samuka/Downloads/lab4/ex3/src/main
      +                          .c: 63: ;C:/Users/Samuka/Downloads/lab4/ex3/src/main.c: 64: ;C:/Users/Samuka/Downloads/l
      +                          ab4/ex3/src/main.c: 67:         LCD_PutTemperature(temp_mili, buffer);
   900   000818  8092               	bsf	146,0,c	;volatile
   901   00081A                     
   902                           ;C:/Users/Samuka/Downloads/lab4/ex3/src/main.c: 68:         putrsXLCD(" ");
   903   00081A  0E0E               	movlw	14
   904   00081C  6EC1               	movwf	193,c	;volatile
   905                           
   906                           ;C:/Users/Samuka/Downloads/lab4/ex3/src/main.c: 69:         WriteDataXLCD(0b11011111);
   907   00081E  0E96               	movlw	150
   908   000820  6EC0               	movwf	192,c	;volatile
   909                           
   910                           ;C:/Users/Samuka/Downloads/lab4/ex3/src/main.c: 70:         putrsXLCD("C");
   911   000822  0E01               	movlw	1
   912   000824  6EC2               	movwf	194,c	;volatile
   913   000826                     
   914                           ;C:/Users/Samuka/Downloads/lab4/ex3/src/main.c: 73:         if (temp_mili < 320) {
   915   000826  9294               	bcf	148,1,c	;volatile
   916   000828                     
   917                           ;C:/Users/Samuka/Downloads/lab4/ex3/src/main.c: 74:             LATCbits.LATC1 = 1;
   918   000828  9494               	bcf	148,2,c	;volatile
   919   00082A                     
   920                           ;C:/Users/Samuka/Downloads/lab4/ex3/src/main.c: 75:             LATCbits.LATC2 = 0;
   921   00082A  828B               	bsf	139,1,c	;volatile
   922   00082C                     
   923                           ;C:/Users/Samuka/Downloads/lab4/ex3/src/main.c: 76: 
   924   00082C  948B               	bcf	139,2,c	;volatile
   925   00082E                     
   926                           ;C:/Users/Samuka/Downloads/lab4/ex3/src/main.c: 79:             LATCbits.LATC2 = 1;
   927   00082E  6A95               	clrf	149,c	;volatile
   928   000830                     
   929                           ;C:/Users/Samuka/Downloads/lab4/ex3/src/main.c: 80:         }
   930   000830  9096               	bcf	150,0,c	;volatile
   931   000832                     
   932                           ;C:/Users/Samuka/Downloads/lab4/ex3/src/main.c: 81: 
   933   000832  9296               	bcf	150,1,c	;volatile
   934   000834                     
   935                           ;C:/Users/Samuka/Downloads/lab4/ex3/src/main.c: 82: 
   936   000834  9496               	bcf	150,2,c	;volatile
   937   000836                     
   938                           ;C:/Users/Samuka/Downloads/lab4/ex3/src/main.c: 84:         WriteDataXLCD(0);
   939   000836  0E3B               	movlw	59
   940   000838  EC5C  F005         	call	_OpenXLCD
   941   00083C                     l1704:
   942   00083C  EC19  F009         	call	_BusyXLCD	;wreg free
   943   000840  0900               	iorlw	0
   944   000842  A4D8               	btfss	status,2,c
   945   000844  EF26  F004         	goto	u801
   946   000848  EF28  F004         	goto	u800
   947   00084C                     u801:
   948   00084C  EF1E  F004         	goto	l1704
   949   000850                     u800:
   950   000850                     
   951                           ;C:/Users/Samuka/Downloads/lab4/ex3/src/main.c: 86:            for (int j = 0; j < 5; j+
      +                          +) {
   952   000850  0E01               	movlw	1
   953   000852  ECFA  F008         	call	_WriteCmdXLCD
   954                           
   955                           ;C:/Users/Samuka/Downloads/lab4/ex3/src/main.c: 87:              _delay((unsigned long)(
      +                          (10)*(48000000UL/4000.0)));
   956   000856  EC2C  F009         	call	_DelayPORXLCD	;wreg free
   957   00085A                     
   958                           ;C:/Users/Samuka/Downloads/lab4/ex3/src/main.c: 88:            }
   959   00085A  0E01               	movlw	low STR_1
   960   00085C  6E02               	movwf	putrsXLCD@buffer^0,c
   961   00085E  EC2A  F008         	call	_putrsXLCD	;wreg free
   962   000862                     
   963                           ;C:/Users/Samuka/Downloads/lab4/ex3/src/main.c: 89:         }
   964   000862  EC34  F009         	call	_DelayFor18TCY	;wreg free
   965   000866                     l1712:
   966                           
   967                           ;C:/Users/Samuka/Downloads/lab4/ex3/src/main.c: 93: ;C:/Users/Samuka/Downloads/lab4/ex3/
      +                          src/main.c: 95: unsigned int AD_Read(void) {
   968   000866  ECC4  F008         	call	_AD_Read	;wreg free
   969   00086A  C001  F04D         	movff	?_AD_Read,main@ad_value
   970   00086E  C002  F04E         	movff	?_AD_Read+1,main@ad_value+1
   971   000872                     
   972                           ;C:/Users/Samuka/Downloads/lab4/ex3/src/main.c: 96:     _delay((unsigned long)((20)*(480
      +                          00000UL/4000000.0)));
   973   000872  C04D  F001         	movff	main@ad_value,___lmul@multiplier
   974   000876  C04E  F002         	movff	main@ad_value+1,___lmul@multiplier+1
   975   00087A  6A03               	clrf	(___lmul@multiplier+2)^0,c
   976   00087C  6A04               	clrf	(___lmul@multiplier+3)^0,c
   977   00087E  0E88               	movlw	136
   978   000880  6E05               	movwf	___lmul@multiplicand^0,c
   979   000882  0E13               	movlw	19
   980   000884  6E06               	movwf	(___lmul@multiplicand+1)^0,c
   981   000886  0E00               	movlw	0
   982   000888  6E07               	movwf	(___lmul@multiplicand+2)^0,c
   983   00088A  0E00               	movlw	0
   984   00088C  6E08               	movwf	(___lmul@multiplicand+3)^0,c
   985   00088E  EC94  F007         	call	___lmul	;wreg free
   986   000892  C001  F00D         	movff	?___lmul,___lldiv@dividend
   987   000896  C002  F00E         	movff	?___lmul+1,___lldiv@dividend+1
   988   00089A  C003  F00F         	movff	?___lmul+2,___lldiv@dividend+2
   989   00089E  C004  F010         	movff	?___lmul+3,___lldiv@dividend+3
   990   0008A2  0EFF               	movlw	255
   991   0008A4  6E11               	movwf	___lldiv@divisor^0,c
   992   0008A6  0E03               	movlw	3
   993   0008A8  6E12               	movwf	(___lldiv@divisor+1)^0,c
   994   0008AA  0E00               	movlw	0
   995   0008AC  6E13               	movwf	(___lldiv@divisor+2)^0,c
   996   0008AE  0E00               	movlw	0
   997   0008B0  6E14               	movwf	(___lldiv@divisor+3)^0,c
   998   0008B2  EC71  F006         	call	___lldiv	;wreg free
   999   0008B6  C00D  F053         	movff	?___lldiv,main@temp_mili
  1000   0008BA  C00E  F054         	movff	?___lldiv+1,main@temp_mili+1
  1001   0008BE                     l1716:
  1002   0008BE  EC19  F009         	call	_BusyXLCD	;wreg free
  1003   0008C2  0900               	iorlw	0
  1004   0008C4  A4D8               	btfss	status,2,c
  1005   0008C6  EF67  F004         	goto	u811
  1006   0008CA  EF69  F004         	goto	u810
  1007   0008CE                     u811:
  1008   0008CE  EF5F  F004         	goto	l1716
  1009   0008D2                     u810:
  1010   0008D2                     
  1011                           ;C:/Users/Samuka/Downloads/lab4/ex3/src/main.c: 100: }
  1012   0008D2  0E40               	movlw	64
  1013   0008D4  ECD9  F008         	call	_SetDDRamAddr
  1014   0008D8                     
  1015                           ;C:/Users/Samuka/Downloads/lab4/ex3/src/main.c: 101: 
  1016   0008D8  C053  F03B         	movff	main@temp_mili,LCD_PutTemperature@num_mili
  1017   0008DC  C054  F03C         	movff	main@temp_mili+1,LCD_PutTemperature@num_mili+1
  1018   0008E0  0E43               	movlw	low main@buffer
  1019   0008E2  6E3D               	movwf	LCD_PutTemperature@buffer^0,c
  1020   0008E4  ECFB  F007         	call	_LCD_PutTemperature	;wreg free
  1021   0008E8                     
  1022                           ;C:/Users/Samuka/Downloads/lab4/ex3/src/main.c: 102: void LCD_PutTemperature(unsigned in
      +                          t num_mili, char *buffer) {
  1023   0008E8  0E0C               	movlw	low (STR_1+11)
  1024   0008EA  6E02               	movwf	putrsXLCD@buffer^0,c
  1025   0008EC  EC2A  F008         	call	_putrsXLCD	;wreg free
  1026   0008F0                     
  1027                           ;C:/Users/Samuka/Downloads/lab4/ex3/src/main.c: 103:     unsigned int parte_inteira = nu
      +                          m_mili / 10;
  1028   0008F0  0EDF               	movlw	223
  1029   0008F2  EC0A  F009         	call	_WriteDataXLCD
  1030   0008F6                     
  1031                           ;C:/Users/Samuka/Downloads/lab4/ex3/src/main.c: 104:     unsigned int parte_decimal = nu
      +                          m_mili % 10;
  1032   0008F6  0E15               	movlw	low STR_3
  1033   0008F8  6E02               	movwf	putrsXLCD@buffer^0,c
  1034   0008FA  EC2A  F008         	call	_putrsXLCD	;wreg free
  1035   0008FE                     
  1036                           ;C:/Users/Samuka/Downloads/lab4/ex3/src/main.c: 107: }
  1037   0008FE  0E40               	movlw	64
  1038   000900  5C53               	subwf	main@temp_mili^0,w,c
  1039   000902  0E01               	movlw	1
  1040   000904  5854               	subwfb	(main@temp_mili+1)^0,w,c
  1041   000906  B0D8               	btfsc	status,0,c
  1042   000908  EF88  F004         	goto	u821
  1043   00090C  EF8A  F004         	goto	u820
  1044   000910                     u821:
  1045   000910  EF8E  F004         	goto	l1732
  1046   000914                     u820:
  1047   000914  828B               	bsf	139,1,c	;volatile
  1048   000916  948B               	bcf	139,2,c	;volatile
  1049   000918  EF9B  F004         	goto	l1736
  1050   00091C                     l1732:
  1051   00091C  0E91               	movlw	145
  1052   00091E  5C53               	subwf	main@temp_mili^0,w,c
  1053   000920  0E01               	movlw	1
  1054   000922  5854               	subwfb	(main@temp_mili+1)^0,w,c
  1055   000924  A0D8               	btfss	status,0,c
  1056   000926  EF97  F004         	goto	u831
  1057   00092A  EF99  F004         	goto	u830
  1058   00092E                     u831:
  1059   00092E  EF9B  F004         	goto	l1736
  1060   000932                     u830:
  1061   000932  928B               	bcf	139,1,c	;volatile
  1062   000934  848B               	bsf	139,2,c	;volatile
  1063   000936                     l1736:
  1064   000936  0E48               	movlw	72
  1065   000938  ECD9  F008         	call	_SetDDRamAddr
  1066   00093C  0E00               	movlw	0
  1067   00093E  EC0A  F009         	call	_WriteDataXLCD
  1068   000942  0E00               	movlw	0
  1069   000944  6E50               	movwf	(main@i+1)^0,c
  1070   000946  0E00               	movlw	0
  1071   000948  6E4F               	movwf	main@i^0,c
  1072   00094A                     l1746:
  1073   00094A  0E00               	movlw	0
  1074   00094C  6E52               	movwf	(main@j+1)^0,c
  1075   00094E  0E00               	movlw	0
  1076   000950  6E51               	movwf	main@j^0,c
  1077   000952                     l1752:
  1078   000952  0E9C               	movlw	156
  1079   000954  6E42               	movwf	??_main^0,c
  1080   000956  0ED7               	movlw	215
  1081   000958                     u867:
  1082   000958  2EE8               	decfsz	wreg,f,c
  1083   00095A  D7FE               	bra	u867
  1084   00095C  2E42               	decfsz	??_main^0,f,c
  1085   00095E  D7FC               	bra	u867
  1086   000960  0000               	nop	
  1087   000962  4A51               	infsnz	main@j^0,f,c
  1088   000964  2A52               	incf	(main@j+1)^0,f,c
  1089   000966  BE52               	btfsc	(main@j+1)^0,7,c
  1090   000968  EFBF  F004         	goto	u841
  1091   00096C  5052               	movf	(main@j+1)^0,w,c
  1092   00096E  E109               	bnz	u840
  1093   000970  0E05               	movlw	5
  1094   000972  5C51               	subwf	main@j^0,w,c
  1095   000974  A0D8               	btfss	status,0,c
  1096   000976  EFBF  F004         	goto	u841
  1097   00097A  EFC1  F004         	goto	u840
  1098   00097E                     u841:
  1099   00097E  EFA9  F004         	goto	l1752
  1100   000982                     u840:
  1101   000982  4A4F               	infsnz	main@i^0,f,c
  1102   000984  2A50               	incf	(main@i+1)^0,f,c
  1103   000986  BE50               	btfsc	(main@i+1)^0,7,c
  1104   000988  EFCF  F004         	goto	u851
  1105   00098C  5050               	movf	(main@i+1)^0,w,c
  1106   00098E  E109               	bnz	u850
  1107   000990  0E06               	movlw	6
  1108   000992  5C4F               	subwf	main@i^0,w,c
  1109   000994  A0D8               	btfss	status,0,c
  1110   000996  EFCF  F004         	goto	u851
  1111   00099A  EFD1  F004         	goto	u850
  1112   00099E                     u851:
  1113   00099E  EFA5  F004         	goto	l1746
  1114   0009A2                     u850:
  1115   0009A2  EF33  F004         	goto	l1712
  1116   0009A6  EFFE  F03F         	goto	start
  1117   0009AA                     __end_of_main:
  1118                           	callstack 0
  1119                           
  1120 ;; *************** function _putrsXLCD *****************
  1121 ;; Defined at:
  1122 ;;		line 219 in file "C:/Users/Samuka/Downloads/lab4/ex3/src/xlcd.c"
  1123 ;; Parameters:    Size  Location     Type
  1124 ;;  buffer          1    1[COMRAM] PTR const unsigned char 
  1125 ;;		 -> STR_3(2), STR_2(2), STR_1(13), 
  1126 ;; Auto vars:     Size  Location     Type
  1127 ;;		None
  1128 ;; Return value:  Size  Location     Type
  1129 ;;                  1    wreg      void 
  1130 ;; Registers used:
  1131 ;;		wreg, status,2, status,0, tblptrl, tblptrh, tblptru, cstack
  1132 ;; Tracked objects:
  1133 ;;		On entry : 0/0
  1134 ;;		On exit  : 0/0
  1135 ;;		Unchanged: 0/0
  1136 ;; Data sizes:     COMRAM   BANK0   BANK1   BANK2   BANK3   BANK4   BANK5   BANK6   BANK7
  1137 ;;      Params:         1       0       0       0       0       0       0       0       0
  1138 ;;      Locals:         0       0       0       0       0       0       0       0       0
  1139 ;;      Temps:          0       0       0       0       0       0       0       0       0
  1140 ;;      Totals:         1       0       0       0       0       0       0       0       0
  1141 ;;Total ram usage:        1 bytes
  1142 ;; Hardware stack levels used: 1
  1143 ;; Hardware stack levels required when called: 2
  1144 ;; This function calls:
  1145 ;;		_BusyXLCD
  1146 ;;		_WriteDataXLCD
  1147 ;; This function is called by:
  1148 ;;		_main
  1149 ;; This function uses a non-reentrant model
  1150 ;;
  1151                           
  1152                           	psect	text1
  1153   001054                     __ptext1:
  1154                           	callstack 0
  1155   001054                     _putrsXLCD:
  1156                           	callstack 28
  1157   001054                     
  1158                           ;C:/Users/Samuka/Downloads/lab4/ex3/src/xlcd.c: 219: void putrsXLCD(const char *buffer);
      +                          C:/Users/Samuka/Downloads/lab4/ex3/src/xlcd.c: 220: {;C:/Users/Samuka/Downloads/lab4/ex3
      +                          /src/xlcd.c: 221:         while(*buffer)
  1159   001054  EF3F  F008         	goto	l1634
  1160   001058                     l1628:
  1161   001058  EC19  F009         	call	_BusyXLCD	;wreg free
  1162   00105C  0900               	iorlw	0
  1163   00105E  A4D8               	btfss	status,2,c
  1164   001060  EF34  F008         	goto	u721
  1165   001064  EF36  F008         	goto	u720
  1166   001068                     u721:
  1167   001068  EF2C  F008         	goto	l1628
  1168   00106C                     u720:
  1169   00106C                     
  1170                           ;C:/Users/Samuka/Downloads/lab4/ex3/src/xlcd.c: 224:                 WriteDataXLCD(*buff
      +                          er);
  1171   00106C  C002  FFF6         	movff	putrsXLCD@buffer,tblptrl
  1172   001070                     	if	1	;There is more than 1 active tblptr byte
  1173   001070  0E08               	movlw	high __smallconst
  1174   001072  6EF7               	movwf	tblptrh,c
  1175   001074                     	endif
  1176   001074                     	if	0	;tblptru may be non-zero
  1177   001074                     	endif
  1178   001074                     	if	0	;tblptru may be non-zero
  1179   001074                     	endif
  1180   001074  0008               	tblrd		*
  1181   001076  50F5               	movf	tablat,w,c
  1182   001078  EC0A  F009         	call	_WriteDataXLCD
  1183   00107C                     
  1184                           ;C:/Users/Samuka/Downloads/lab4/ex3/src/xlcd.c: 225:                 buffer++;
  1185   00107C  2A02               	incf	putrsXLCD@buffer^0,f,c
  1186   00107E                     l1634:
  1187                           
  1188                           ;C:/Users/Samuka/Downloads/lab4/ex3/src/xlcd.c: 221:         while(*buffer)
  1189   00107E  C002  FFF6         	movff	putrsXLCD@buffer,tblptrl
  1190   001082                     	if	1	;There is more than 1 active tblptr byte
  1191   001082  0E08               	movlw	high __smallconst
  1192   001084  6EF7               	movwf	tblptrh,c
  1193   001086                     	endif
  1194   001086                     	if	0	;tblptru may be non-zero
  1195   001086                     	endif
  1196   001086                     	if	0	;tblptru may be non-zero
  1197   001086                     	endif
  1198   001086  0008               	tblrd		*
  1199   001088  50F5               	movf	tablat,w,c
  1200   00108A  0900               	iorlw	0
  1201   00108C  A4D8               	btfss	status,2,c
  1202   00108E  EF4B  F008         	goto	u731
  1203   001092  EF4D  F008         	goto	u730
  1204   001096                     u731:
  1205   001096  EF2C  F008         	goto	l1628
  1206   00109A                     u730:
  1207   00109A  0012               	return		;funcret
  1208   00109C                     __end_of_putrsXLCD:
  1209                           	callstack 0
  1210                           
  1211 ;; *************** function ___lmul *****************
  1212 ;; Defined at:
  1213 ;;		line 15 in file "C:\Program Files\Microchip\xc8\v3.00\pic\sources\c99\common\Umul32.c"
  1214 ;; Parameters:    Size  Location     Type
  1215 ;;  multiplier      4    0[COMRAM] unsigned long 
  1216 ;;  multiplicand    4    4[COMRAM] unsigned long 
  1217 ;; Auto vars:     Size  Location     Type
  1218 ;;  product         4    8[COMRAM] unsigned long 
  1219 ;; Return value:  Size  Location     Type
  1220 ;;                  4    0[COMRAM] unsigned long 
  1221 ;; Registers used:
  1222 ;;		wreg, status,2, status,0
  1223 ;; Tracked objects:
  1224 ;;		On entry : 0/0
  1225 ;;		On exit  : 0/0
  1226 ;;		Unchanged: 0/0
  1227 ;; Data sizes:     COMRAM   BANK0   BANK1   BANK2   BANK3   BANK4   BANK5   BANK6   BANK7
  1228 ;;      Params:         8       0       0       0       0       0       0       0       0
  1229 ;;      Locals:         4       0       0       0       0       0       0       0       0
  1230 ;;      Temps:          0       0       0       0       0       0       0       0       0
  1231 ;;      Totals:        12       0       0       0       0       0       0       0       0
  1232 ;;Total ram usage:       12 bytes
  1233 ;; Hardware stack levels used: 1
  1234 ;; This function calls:
  1235 ;;		Nothing
  1236 ;; This function is called by:
  1237 ;;		_main
  1238 ;; This function uses a non-reentrant model
  1239 ;;
  1240                           
  1241                           	psect	text2
  1242   000F28                     __ptext2:
  1243                           	callstack 0
  1244   000F28                     ___lmul:
  1245                           	callstack 30
  1246   000F28  0E00               	movlw	0
  1247   000F2A  6E09               	movwf	___lmul@product^0,c
  1248   000F2C  0E00               	movlw	0
  1249   000F2E  6E0A               	movwf	(___lmul@product+1)^0,c
  1250   000F30  0E00               	movlw	0
  1251   000F32  6E0B               	movwf	(___lmul@product+2)^0,c
  1252   000F34  0E00               	movlw	0
  1253   000F36  6E0C               	movwf	(___lmul@product+3)^0,c
  1254   000F38                     l1652:
  1255   000F38  A001               	btfss	___lmul@multiplier^0,0,c
  1256   000F3A  EFA1  F007         	goto	u751
  1257   000F3E  EFA3  F007         	goto	u750
  1258   000F42                     u751:
  1259   000F42  EFAB  F007         	goto	l1656
  1260   000F46                     u750:
  1261   000F46  5005               	movf	___lmul@multiplicand^0,w,c
  1262   000F48  2609               	addwf	___lmul@product^0,f,c
  1263   000F4A  5006               	movf	(___lmul@multiplicand+1)^0,w,c
  1264   000F4C  220A               	addwfc	(___lmul@product+1)^0,f,c
  1265   000F4E  5007               	movf	(___lmul@multiplicand+2)^0,w,c
  1266   000F50  220B               	addwfc	(___lmul@product+2)^0,f,c
  1267   000F52  5008               	movf	(___lmul@multiplicand+3)^0,w,c
  1268   000F54  220C               	addwfc	(___lmul@product+3)^0,f,c
  1269   000F56                     l1656:
  1270   000F56  90D8               	bcf	status,0,c
  1271   000F58  3605               	rlcf	___lmul@multiplicand^0,f,c
  1272   000F5A  3606               	rlcf	(___lmul@multiplicand+1)^0,f,c
  1273   000F5C  3607               	rlcf	(___lmul@multiplicand+2)^0,f,c
  1274   000F5E  3608               	rlcf	(___lmul@multiplicand+3)^0,f,c
  1275   000F60  90D8               	bcf	status,0,c
  1276   000F62  3204               	rrcf	(___lmul@multiplier+3)^0,f,c
  1277   000F64  3203               	rrcf	(___lmul@multiplier+2)^0,f,c
  1278   000F66  3202               	rrcf	(___lmul@multiplier+1)^0,f,c
  1279   000F68  3201               	rrcf	___lmul@multiplier^0,f,c
  1280   000F6A  5001               	movf	___lmul@multiplier^0,w,c
  1281   000F6C  1002               	iorwf	(___lmul@multiplier+1)^0,w,c
  1282   000F6E  1003               	iorwf	(___lmul@multiplier+2)^0,w,c
  1283   000F70  1004               	iorwf	(___lmul@multiplier+3)^0,w,c
  1284   000F72  A4D8               	btfss	status,2,c
  1285   000F74  EFBE  F007         	goto	u761
  1286   000F78  EFC0  F007         	goto	u760
  1287   000F7C                     u761:
  1288   000F7C  EF9C  F007         	goto	l1652
  1289   000F80                     u760:
  1290   000F80  C009  F001         	movff	___lmul@product,?___lmul
  1291   000F84  C00A  F002         	movff	___lmul@product+1,?___lmul+1
  1292   000F88  C00B  F003         	movff	___lmul@product+2,?___lmul+2
  1293   000F8C  C00C  F004         	movff	___lmul@product+3,?___lmul+3
  1294   000F90  0012               	return		;funcret
  1295   000F92                     __end_of___lmul:
  1296                           	callstack 0
  1297                           
  1298 ;; *************** function ___lldiv *****************
  1299 ;; Defined at:
  1300 ;;		line 7 in file "C:\Program Files\Microchip\xc8\v3.00\pic\sources\c99\common\__lldiv.c"
  1301 ;; Parameters:    Size  Location     Type
  1302 ;;  dividend        4   12[COMRAM] unsigned long 
  1303 ;;  divisor         4   16[COMRAM] unsigned long 
  1304 ;; Auto vars:     Size  Location     Type
  1305 ;;  quotient        4   20[COMRAM] unsigned long 
  1306 ;;  counter         1   24[COMRAM] unsigned char 
  1307 ;; Return value:  Size  Location     Type
  1308 ;;                  4   12[COMRAM] unsigned long 
  1309 ;; Registers used:
  1310 ;;		wreg, status,2, status,0
  1311 ;; Tracked objects:
  1312 ;;		On entry : 0/0
  1313 ;;		On exit  : 0/0
  1314 ;;		Unchanged: 0/0
  1315 ;; Data sizes:     COMRAM   BANK0   BANK1   BANK2   BANK3   BANK4   BANK5   BANK6   BANK7
  1316 ;;      Params:         8       0       0       0       0       0       0       0       0
  1317 ;;      Locals:         5       0       0       0       0       0       0       0       0
  1318 ;;      Temps:          0       0       0       0       0       0       0       0       0
  1319 ;;      Totals:        13       0       0       0       0       0       0       0       0
  1320 ;;Total ram usage:       13 bytes
  1321 ;; Hardware stack levels used: 1
  1322 ;; This function calls:
  1323 ;;		Nothing
  1324 ;; This function is called by:
  1325 ;;		_main
  1326 ;; This function uses a non-reentrant model
  1327 ;;
  1328                           
  1329                           	psect	text3
  1330   000CE2                     __ptext3:
  1331                           	callstack 0
  1332   000CE2                     ___lldiv:
  1333                           	callstack 30
  1334   000CE2  0E00               	movlw	0
  1335   000CE4  6E15               	movwf	___lldiv@quotient^0,c
  1336   000CE6  0E00               	movlw	0
  1337   000CE8  6E16               	movwf	(___lldiv@quotient+1)^0,c
  1338   000CEA  0E00               	movlw	0
  1339   000CEC  6E17               	movwf	(___lldiv@quotient+2)^0,c
  1340   000CEE  0E00               	movlw	0
  1341   000CF0  6E18               	movwf	(___lldiv@quotient+3)^0,c
  1342   000CF2  5011               	movf	___lldiv@divisor^0,w,c
  1343   000CF4  1012               	iorwf	(___lldiv@divisor+1)^0,w,c
  1344   000CF6  1013               	iorwf	(___lldiv@divisor+2)^0,w,c
  1345   000CF8  1014               	iorwf	(___lldiv@divisor+3)^0,w,c
  1346   000CFA  B4D8               	btfsc	status,2,c
  1347   000CFC  EF82  F006         	goto	u771
  1348   000D00  EF84  F006         	goto	u770
  1349   000D04                     u771:
  1350   000D04  EFBA  F006         	goto	l192
  1351   000D08                     u770:
  1352   000D08  0E01               	movlw	1
  1353   000D0A  6E19               	movwf	___lldiv@counter^0,c
  1354   000D0C  EF8E  F006         	goto	l1668
  1355   000D10                     l1666:
  1356   000D10  90D8               	bcf	status,0,c
  1357   000D12  3611               	rlcf	___lldiv@divisor^0,f,c
  1358   000D14  3612               	rlcf	(___lldiv@divisor+1)^0,f,c
  1359   000D16  3613               	rlcf	(___lldiv@divisor+2)^0,f,c
  1360   000D18  3614               	rlcf	(___lldiv@divisor+3)^0,f,c
  1361   000D1A  2A19               	incf	___lldiv@counter^0,f,c
  1362   000D1C                     l1668:
  1363   000D1C  AE14               	btfss	(___lldiv@divisor+3)^0,7,c
  1364   000D1E  EF93  F006         	goto	u781
  1365   000D22  EF95  F006         	goto	u780
  1366   000D26                     u781:
  1367   000D26  EF88  F006         	goto	l1666
  1368   000D2A                     u780:
  1369   000D2A                     l1670:
  1370   000D2A  90D8               	bcf	status,0,c
  1371   000D2C  3615               	rlcf	___lldiv@quotient^0,f,c
  1372   000D2E  3616               	rlcf	(___lldiv@quotient+1)^0,f,c
  1373   000D30  3617               	rlcf	(___lldiv@quotient+2)^0,f,c
  1374   000D32  3618               	rlcf	(___lldiv@quotient+3)^0,f,c
  1375   000D34  5011               	movf	___lldiv@divisor^0,w,c
  1376   000D36  5C0D               	subwf	___lldiv@dividend^0,w,c
  1377   000D38  5012               	movf	(___lldiv@divisor+1)^0,w,c
  1378   000D3A  580E               	subwfb	(___lldiv@dividend+1)^0,w,c
  1379   000D3C  5013               	movf	(___lldiv@divisor+2)^0,w,c
  1380   000D3E  580F               	subwfb	(___lldiv@dividend+2)^0,w,c
  1381   000D40  5014               	movf	(___lldiv@divisor+3)^0,w,c
  1382   000D42  5810               	subwfb	(___lldiv@dividend+3)^0,w,c
  1383   000D44  A0D8               	btfss	status,0,c
  1384   000D46  EFA7  F006         	goto	u791
  1385   000D4A  EFA9  F006         	goto	u790
  1386   000D4E                     u791:
  1387   000D4E  EFB2  F006         	goto	l1678
  1388   000D52                     u790:
  1389   000D52  5011               	movf	___lldiv@divisor^0,w,c
  1390   000D54  5E0D               	subwf	___lldiv@dividend^0,f,c
  1391   000D56  5012               	movf	(___lldiv@divisor+1)^0,w,c
  1392   000D58  5A0E               	subwfb	(___lldiv@dividend+1)^0,f,c
  1393   000D5A  5013               	movf	(___lldiv@divisor+2)^0,w,c
  1394   000D5C  5A0F               	subwfb	(___lldiv@dividend+2)^0,f,c
  1395   000D5E  5014               	movf	(___lldiv@divisor+3)^0,w,c
  1396   000D60  5A10               	subwfb	(___lldiv@dividend+3)^0,f,c
  1397   000D62  8015               	bsf	___lldiv@quotient^0,0,c
  1398   000D64                     l1678:
  1399   000D64  90D8               	bcf	status,0,c
  1400   000D66  3214               	rrcf	(___lldiv@divisor+3)^0,f,c
  1401   000D68  3213               	rrcf	(___lldiv@divisor+2)^0,f,c
  1402   000D6A  3212               	rrcf	(___lldiv@divisor+1)^0,f,c
  1403   000D6C  3211               	rrcf	___lldiv@divisor^0,f,c
  1404   000D6E  2E19               	decfsz	___lldiv@counter^0,f,c
  1405   000D70  EF95  F006         	goto	l1670
  1406   000D74                     l192:
  1407   000D74  C015  F00D         	movff	___lldiv@quotient,?___lldiv
  1408   000D78  C016  F00E         	movff	___lldiv@quotient+1,?___lldiv+1
  1409   000D7C  C017  F00F         	movff	___lldiv@quotient+2,?___lldiv+2
  1410   000D80  C018  F010         	movff	___lldiv@quotient+3,?___lldiv+3
  1411   000D84  0012               	return		;funcret
  1412   000D86                     __end_of___lldiv:
  1413                           	callstack 0
  1414                           
  1415 ;; *************** function _OpenXLCD *****************
  1416 ;; Defined at:
  1417 ;;		line 23 in file "C:/Users/Samuka/Downloads/lab4/ex3/src/xlcd.c"
  1418 ;; Parameters:    Size  Location     Type
  1419 ;;  lcdtype         1    wreg     unsigned char 
  1420 ;; Auto vars:     Size  Location     Type
  1421 ;;  lcdtype         1    0[COMRAM] unsigned char 
  1422 ;; Return value:  Size  Location     Type
  1423 ;;                  1    wreg      void 
  1424 ;; Registers used:
  1425 ;;		wreg, status,2, status,0, cstack
  1426 ;; Tracked objects:
  1427 ;;		On entry : 0/0
  1428 ;;		On exit  : 0/0
  1429 ;;		Unchanged: 0/0
  1430 ;; Data sizes:     COMRAM   BANK0   BANK1   BANK2   BANK3   BANK4   BANK5   BANK6   BANK7
  1431 ;;      Params:         0       0       0       0       0       0       0       0       0
  1432 ;;      Locals:         0       0       0       0       0       0       0       0       0
  1433 ;;      Temps:          0       0       0       0       0       0       0       0       0
  1434 ;;      Totals:         0       0       0       0       0       0       0       0       0
  1435 ;;Total ram usage:        0 bytes
  1436 ;; Hardware stack levels used: 1
  1437 ;; Hardware stack levels required when called: 2
  1438 ;; This function calls:
  1439 ;;		_BusyXLCD
  1440 ;;		_DelayFor18TCY
  1441 ;;		_DelayPORXLCD
  1442 ;;		_DelayXLCD
  1443 ;;		_SetDDRamAddr
  1444 ;;		_WriteCmdXLCD
  1445 ;; This function is called by:
  1446 ;;		_main
  1447 ;; This function uses a non-reentrant model
  1448 ;;
  1449                           
  1450                           	psect	text4
  1451   000AB8                     __ptext4:
  1452                           	callstack 0
  1453   000AB8                     _OpenXLCD:
  1454                           	callstack 28
  1455   000AB8                     
  1456                           ;C:/Users/Samuka/Downloads/lab4/ex3/src/xlcd.c: 23: void OpenXLCD(unsigned char lcdtype)
      +                          ;C:/Users/Samuka/Downloads/lab4/ex3/src/xlcd.c: 24: {;C:/Users/Samuka/Downloads/lab4/ex3
      +                          /src/xlcd.c: 28:     PORTD = 0;
  1457   000AB8  6A83               	clrf	131,c	;volatile
  1458                           
  1459                           ;C:/Users/Samuka/Downloads/lab4/ex3/src/xlcd.c: 29:     TRISD = 0xff;
  1460   000ABA  6895               	setf	149,c	;volatile
  1461                           
  1462                           ;C:/Users/Samuka/Downloads/lab4/ex3/src/xlcd.c: 39:     TRISEbits.TRISE2 = 0;
  1463   000ABC  9496               	bcf	150,2,c	;volatile
  1464                           
  1465                           ;C:/Users/Samuka/Downloads/lab4/ex3/src/xlcd.c: 40:     TRISEbits.TRISE0 = 0;
  1466   000ABE  9096               	bcf	150,0,c	;volatile
  1467                           
  1468                           ;C:/Users/Samuka/Downloads/lab4/ex3/src/xlcd.c: 41:     TRISEbits.TRISE1 = 0;
  1469   000AC0  9296               	bcf	150,1,c	;volatile
  1470                           
  1471                           ;C:/Users/Samuka/Downloads/lab4/ex3/src/xlcd.c: 42:     LATEbits.LATE2 = 0;
  1472   000AC2  948D               	bcf	141,2,c	;volatile
  1473                           
  1474                           ;C:/Users/Samuka/Downloads/lab4/ex3/src/xlcd.c: 43:     LATEbits.LATE0 = 0;
  1475   000AC4  908D               	bcf	141,0,c	;volatile
  1476                           
  1477                           ;C:/Users/Samuka/Downloads/lab4/ex3/src/xlcd.c: 44:     LATEbits.LATE1 = 0;
  1478   000AC6  928D               	bcf	141,1,c	;volatile
  1479   000AC8                     
  1480                           ;C:/Users/Samuka/Downloads/lab4/ex3/src/xlcd.c: 45:     DelayPORXLCD();
  1481   000AC8  EC2C  F009         	call	_DelayPORXLCD	;wreg free
  1482   000ACC                     
  1483                           ;C:/Users/Samuka/Downloads/lab4/ex3/src/xlcd.c: 49:     TRISD = 0;
  1484   000ACC  6A95               	clrf	149,c	;volatile
  1485   000ACE                     
  1486                           ;C:/Users/Samuka/Downloads/lab4/ex3/src/xlcd.c: 50:     PORTD = 0b00111000;
  1487   000ACE  0E38               	movlw	56
  1488   000AD0  6E83               	movwf	131,c	;volatile
  1489   000AD2                     
  1490                           ;C:/Users/Samuka/Downloads/lab4/ex3/src/xlcd.c: 62:         LATEbits.LATE1 = 1;
  1491   000AD2  828D               	bsf	141,1,c	;volatile
  1492   000AD4                     
  1493                           ;C:/Users/Samuka/Downloads/lab4/ex3/src/xlcd.c: 63:         DelayFor18TCY();
  1494   000AD4  EC34  F009         	call	_DelayFor18TCY	;wreg free
  1495   000AD8                     
  1496                           ;C:/Users/Samuka/Downloads/lab4/ex3/src/xlcd.c: 64:         LATEbits.LATE1 = 0;
  1497   000AD8  928D               	bcf	141,1,c	;volatile
  1498   000ADA                     
  1499                           ;C:/Users/Samuka/Downloads/lab4/ex3/src/xlcd.c: 67:         DelayXLCD();
  1500   000ADA  EC24  F009         	call	_DelayXLCD	;wreg free
  1501   000ADE                     
  1502                           ;C:/Users/Samuka/Downloads/lab4/ex3/src/xlcd.c: 71:     PORTD = 0b00111000;
  1503   000ADE  0E38               	movlw	56
  1504   000AE0  6E83               	movwf	131,c	;volatile
  1505   000AE2                     
  1506                           ;C:/Users/Samuka/Downloads/lab4/ex3/src/xlcd.c: 81:         LATEbits.LATE1 = 1;
  1507   000AE2  828D               	bsf	141,1,c	;volatile
  1508                           
  1509                           ;C:/Users/Samuka/Downloads/lab4/ex3/src/xlcd.c: 82:         DelayFor18TCY();
  1510   000AE4  EC34  F009         	call	_DelayFor18TCY	;wreg free
  1511   000AE8                     
  1512                           ;C:/Users/Samuka/Downloads/lab4/ex3/src/xlcd.c: 83:         LATEbits.LATE1 = 0;
  1513   000AE8  928D               	bcf	141,1,c	;volatile
  1514                           
  1515                           ;C:/Users/Samuka/Downloads/lab4/ex3/src/xlcd.c: 86:         DelayXLCD();
  1516   000AEA  EC24  F009         	call	_DelayXLCD	;wreg free
  1517   000AEE                     
  1518                           ;C:/Users/Samuka/Downloads/lab4/ex3/src/xlcd.c: 90:         PORTD = 0b00111000;
  1519   000AEE  0E38               	movlw	56
  1520   000AF0  6E83               	movwf	131,c	;volatile
  1521   000AF2                     
  1522                           ;C:/Users/Samuka/Downloads/lab4/ex3/src/xlcd.c: 100:         LATEbits.LATE1 = 1;
  1523   000AF2  828D               	bsf	141,1,c	;volatile
  1524   000AF4                     
  1525                           ;C:/Users/Samuka/Downloads/lab4/ex3/src/xlcd.c: 101:         DelayFor18TCY();
  1526   000AF4  EC34  F009         	call	_DelayFor18TCY	;wreg free
  1527   000AF8                     
  1528                           ;C:/Users/Samuka/Downloads/lab4/ex3/src/xlcd.c: 102:         LATEbits.LATE1 = 0;
  1529   000AF8  928D               	bcf	141,1,c	;volatile
  1530   000AFA                     
  1531                           ;C:/Users/Samuka/Downloads/lab4/ex3/src/xlcd.c: 105:         TRISD = 0xff;
  1532   000AFA  6895               	setf	149,c	;volatile
  1533   000AFC                     l1230:
  1534   000AFC  EC19  F009         	call	_BusyXLCD	;wreg free
  1535   000B00  0900               	iorlw	0
  1536   000B02  A4D8               	btfss	status,2,c
  1537   000B04  EF86  F005         	goto	u271
  1538   000B08  EF88  F005         	goto	u270
  1539   000B0C                     u271:
  1540   000B0C  EF7E  F005         	goto	l1230
  1541   000B10                     u270:
  1542   000B10                     
  1543                           ;C:/Users/Samuka/Downloads/lab4/ex3/src/xlcd.c: 116:   WriteCmdXLCD(0b00001011&0b0000110
      +                          1&0b00001110);
  1544   000B10  0E08               	movlw	8
  1545   000B12  ECFA  F008         	call	_WriteCmdXLCD
  1546   000B16                     l1234:
  1547   000B16  EC19  F009         	call	_BusyXLCD	;wreg free
  1548   000B1A  0900               	iorlw	0
  1549   000B1C  A4D8               	btfss	status,2,c
  1550   000B1E  EF93  F005         	goto	u281
  1551   000B22  EF95  F005         	goto	u280
  1552   000B26                     u281:
  1553   000B26  EF8B  F005         	goto	l1234
  1554   000B2A                     u280:
  1555   000B2A                     
  1556                           ;C:/Users/Samuka/Downloads/lab4/ex3/src/xlcd.c: 119:         WriteCmdXLCD(0b00001111&0b0
      +                          0001111&0b00001111);
  1557   000B2A  0E0F               	movlw	15
  1558   000B2C  ECFA  F008         	call	_WriteCmdXLCD
  1559   000B30                     l1238:
  1560   000B30  EC19  F009         	call	_BusyXLCD	;wreg free
  1561   000B34  0900               	iorlw	0
  1562   000B36  A4D8               	btfss	status,2,c
  1563   000B38  EFA0  F005         	goto	u291
  1564   000B3C  EFA2  F005         	goto	u290
  1565   000B40                     u291:
  1566   000B40  EF98  F005         	goto	l1238
  1567   000B44                     u290:
  1568   000B44                     
  1569                           ;C:/Users/Samuka/Downloads/lab4/ex3/src/xlcd.c: 123:         WriteCmdXLCD(0x01);
  1570   000B44  0E01               	movlw	1
  1571   000B46  ECFA  F008         	call	_WriteCmdXLCD
  1572                           
  1573                           ;C:/Users/Samuka/Downloads/lab4/ex3/src/xlcd.c: 125:   DelayFor18TCY();
  1574   000B4A  EC34  F009         	call	_DelayFor18TCY	;wreg free
  1575   000B4E                     l1242:
  1576   000B4E  EC19  F009         	call	_BusyXLCD	;wreg free
  1577   000B52  0900               	iorlw	0
  1578   000B54  A4D8               	btfss	status,2,c
  1579   000B56  EFAF  F005         	goto	u301
  1580   000B5A  EFB1  F005         	goto	u300
  1581   000B5E                     u301:
  1582   000B5E  EFA7  F005         	goto	l1242
  1583   000B62                     u300:
  1584   000B62                     
  1585                           ;C:/Users/Samuka/Downloads/lab4/ex3/src/xlcd.c: 129:         WriteCmdXLCD(0b00010011);
  1586   000B62  0E13               	movlw	19
  1587   000B64  ECFA  F008         	call	_WriteCmdXLCD
  1588   000B68                     l1246:
  1589   000B68  EC19  F009         	call	_BusyXLCD	;wreg free
  1590   000B6C  0900               	iorlw	0
  1591   000B6E  A4D8               	btfss	status,2,c
  1592   000B70  EFBC  F005         	goto	u311
  1593   000B74  EFBE  F005         	goto	u310
  1594   000B78                     u311:
  1595   000B78  EFB4  F005         	goto	l1246
  1596   000B7C                     u310:
  1597   000B7C                     
  1598                           ;C:/Users/Samuka/Downloads/lab4/ex3/src/xlcd.c: 133:         SetDDRamAddr(0);
  1599   000B7C  0E00               	movlw	0
  1600   000B7E  ECD9  F008         	call	_SetDDRamAddr
  1601   000B82  0012               	return		;funcret
  1602   000B84                     __end_of_OpenXLCD:
  1603                           	callstack 0
  1604                           
  1605 ;; *************** function _WriteCmdXLCD *****************
  1606 ;; Defined at:
  1607 ;;		line 483 in file "C:/Users/Samuka/Downloads/lab4/ex3/src/xlcd.c"
  1608 ;; Parameters:    Size  Location     Type
  1609 ;;  cmd             1    wreg     unsigned char 
  1610 ;; Auto vars:     Size  Location     Type
  1611 ;;  cmd             1    0[COMRAM] unsigned char 
  1612 ;; Return value:  Size  Location     Type
  1613 ;;                  1    wreg      void 
  1614 ;; Registers used:
  1615 ;;		wreg, cstack
  1616 ;; Tracked objects:
  1617 ;;		On entry : 0/0
  1618 ;;		On exit  : 0/0
  1619 ;;		Unchanged: 0/0
  1620 ;; Data sizes:     COMRAM   BANK0   BANK1   BANK2   BANK3   BANK4   BANK5   BANK6   BANK7
  1621 ;;      Params:         0       0       0       0       0       0       0       0       0
  1622 ;;      Locals:         1       0       0       0       0       0       0       0       0
  1623 ;;      Temps:          0       0       0       0       0       0       0       0       0
  1624 ;;      Totals:         1       0       0       0       0       0       0       0       0
  1625 ;;Total ram usage:        1 bytes
  1626 ;; Hardware stack levels used: 1
  1627 ;; Hardware stack levels required when called: 1
  1628 ;; This function calls:
  1629 ;;		_DelayFor18TCY
  1630 ;; This function is called by:
  1631 ;;		_main
  1632 ;;		_OpenXLCD
  1633 ;; This function uses a non-reentrant model
  1634 ;;
  1635                           
  1636                           	psect	text5
  1637   0011F4                     __ptext5:
  1638                           	callstack 0
  1639   0011F4                     _WriteCmdXLCD:
  1640                           	callstack 29
  1641                           
  1642                           ;incstack = 0
  1643                           ;WriteCmdXLCD@cmd stored from wreg
  1644   0011F4  6E01               	movwf	WriteCmdXLCD@cmd^0,c
  1645   0011F6                     
  1646                           ;C:/Users/Samuka/Downloads/lab4/ex3/src/xlcd.c: 483: void WriteCmdXLCD(unsigned char cmd
      +                          );C:/Users/Samuka/Downloads/lab4/ex3/src/xlcd.c: 484: {;C:/Users/Samuka/Downloads/lab4/e
      +                          x3/src/xlcd.c: 486:         TRISD = 0;
  1647   0011F6  6A95               	clrf	149,c	;volatile
  1648   0011F8                     
  1649                           ;C:/Users/Samuka/Downloads/lab4/ex3/src/xlcd.c: 487:         PORTD = cmd;
  1650   0011F8  C001  FF83         	movff	WriteCmdXLCD@cmd,3971	;volatile
  1651   0011FC                     
  1652                           ;C:/Users/Samuka/Downloads/lab4/ex3/src/xlcd.c: 488:         LATEbits.LATE2 = 0;
  1653   0011FC  948D               	bcf	141,2,c	;volatile
  1654   0011FE                     
  1655                           ;C:/Users/Samuka/Downloads/lab4/ex3/src/xlcd.c: 489:         LATEbits.LATE0 = 0;
  1656   0011FE  908D               	bcf	141,0,c	;volatile
  1657   001200                     
  1658                           ;C:/Users/Samuka/Downloads/lab4/ex3/src/xlcd.c: 490:         DelayFor18TCY();
  1659   001200  EC34  F009         	call	_DelayFor18TCY	;wreg free
  1660   001204                     
  1661                           ;C:/Users/Samuka/Downloads/lab4/ex3/src/xlcd.c: 491:         LATEbits.LATE1 = 1;
  1662   001204  828D               	bsf	141,1,c	;volatile
  1663   001206                     
  1664                           ;C:/Users/Samuka/Downloads/lab4/ex3/src/xlcd.c: 492:         DelayFor18TCY();
  1665   001206  EC34  F009         	call	_DelayFor18TCY	;wreg free
  1666   00120A                     
  1667                           ;C:/Users/Samuka/Downloads/lab4/ex3/src/xlcd.c: 493:         LATEbits.LATE1 = 0;
  1668   00120A  928D               	bcf	141,1,c	;volatile
  1669   00120C                     
  1670                           ;C:/Users/Samuka/Downloads/lab4/ex3/src/xlcd.c: 494:         DelayFor18TCY();
  1671   00120C  EC34  F009         	call	_DelayFor18TCY	;wreg free
  1672   001210                     
  1673                           ;C:/Users/Samuka/Downloads/lab4/ex3/src/xlcd.c: 495:         TRISD = 0xff;
  1674   001210  6895               	setf	149,c	;volatile
  1675   001212  0012               	return		;funcret
  1676   001214                     __end_of_WriteCmdXLCD:
  1677                           	callstack 0
  1678                           
  1679 ;; *************** function _SetDDRamAddr *****************
  1680 ;; Defined at:
  1681 ;;		line 425 in file "C:/Users/Samuka/Downloads/lab4/ex3/src/xlcd.c"
  1682 ;; Parameters:    Size  Location     Type
  1683 ;;  DDaddr          1    wreg     unsigned char 
  1684 ;; Auto vars:     Size  Location     Type
  1685 ;;  DDaddr          1    0[COMRAM] unsigned char 
  1686 ;; Return value:  Size  Location     Type
  1687 ;;                  1    wreg      void 
  1688 ;; Registers used:
  1689 ;;		wreg, status,2, status,0, cstack
  1690 ;; Tracked objects:
  1691 ;;		On entry : 0/0
  1692 ;;		On exit  : 0/0
  1693 ;;		Unchanged: 0/0
  1694 ;; Data sizes:     COMRAM   BANK0   BANK1   BANK2   BANK3   BANK4   BANK5   BANK6   BANK7
  1695 ;;      Params:         0       0       0       0       0       0       0       0       0
  1696 ;;      Locals:         1       0       0       0       0       0       0       0       0
  1697 ;;      Temps:          0       0       0       0       0       0       0       0       0
  1698 ;;      Totals:         1       0       0       0       0       0       0       0       0
  1699 ;;Total ram usage:        1 bytes
  1700 ;; Hardware stack levels used: 1
  1701 ;; Hardware stack levels required when called: 1
  1702 ;; This function calls:
  1703 ;;		_DelayFor18TCY
  1704 ;; This function is called by:
  1705 ;;		_main
  1706 ;;		_OpenXLCD
  1707 ;; This function uses a non-reentrant model
  1708 ;;
  1709                           
  1710                           	psect	text6
  1711   0011B2                     __ptext6:
  1712                           	callstack 0
  1713   0011B2                     _SetDDRamAddr:
  1714                           	callstack 29
  1715                           
  1716                           ;incstack = 0
  1717                           ;SetDDRamAddr@DDaddr stored from wreg
  1718   0011B2  6E01               	movwf	SetDDRamAddr@DDaddr^0,c
  1719   0011B4                     
  1720                           ;C:/Users/Samuka/Downloads/lab4/ex3/src/xlcd.c: 425: void SetDDRamAddr(unsigned char DDa
      +                          ddr);C:/Users/Samuka/Downloads/lab4/ex3/src/xlcd.c: 426: {;C:/Users/Samuka/Downloads/lab
      +                          4/ex3/src/xlcd.c: 428:         TRISD = 0;
  1721   0011B4  6A95               	clrf	149,c	;volatile
  1722   0011B6                     
  1723                           ;C:/Users/Samuka/Downloads/lab4/ex3/src/xlcd.c: 429:         PORTD = DDaddr | 0b10000000
      +                          ;
  1724   0011B6  5001               	movf	SetDDRamAddr@DDaddr^0,w,c
  1725   0011B8  0980               	iorlw	128
  1726   0011BA  6E83               	movwf	131,c	;volatile
  1727   0011BC                     
  1728                           ;C:/Users/Samuka/Downloads/lab4/ex3/src/xlcd.c: 430:         LATEbits.LATE2 = 0;
  1729   0011BC  948D               	bcf	141,2,c	;volatile
  1730   0011BE                     
  1731                           ;C:/Users/Samuka/Downloads/lab4/ex3/src/xlcd.c: 431:         LATEbits.LATE0 = 0;
  1732   0011BE  908D               	bcf	141,0,c	;volatile
  1733   0011C0                     
  1734                           ;C:/Users/Samuka/Downloads/lab4/ex3/src/xlcd.c: 432:         DelayFor18TCY();
  1735   0011C0  EC34  F009         	call	_DelayFor18TCY	;wreg free
  1736   0011C4                     
  1737                           ;C:/Users/Samuka/Downloads/lab4/ex3/src/xlcd.c: 433:         LATEbits.LATE1 = 1;
  1738   0011C4  828D               	bsf	141,1,c	;volatile
  1739   0011C6                     
  1740                           ;C:/Users/Samuka/Downloads/lab4/ex3/src/xlcd.c: 434:         DelayFor18TCY();
  1741   0011C6  EC34  F009         	call	_DelayFor18TCY	;wreg free
  1742   0011CA                     
  1743                           ;C:/Users/Samuka/Downloads/lab4/ex3/src/xlcd.c: 435:         LATEbits.LATE1 = 0;
  1744   0011CA  928D               	bcf	141,1,c	;volatile
  1745   0011CC                     
  1746                           ;C:/Users/Samuka/Downloads/lab4/ex3/src/xlcd.c: 436:         DelayFor18TCY();
  1747   0011CC  EC34  F009         	call	_DelayFor18TCY	;wreg free
  1748   0011D0                     
  1749                           ;C:/Users/Samuka/Downloads/lab4/ex3/src/xlcd.c: 437:         TRISD = 0xff;
  1750   0011D0  6895               	setf	149,c	;volatile
  1751   0011D2  0012               	return		;funcret
  1752   0011D4                     __end_of_SetDDRamAddr:
  1753                           	callstack 0
  1754                           
  1755 ;; *************** function _DelayXLCD *****************
  1756 ;; Defined at:
  1757 ;;		line 55 in file "C:/Users/Samuka/Downloads/lab4/ex3/src/main.c"
  1758 ;; Parameters:    Size  Location     Type
  1759 ;;		None
  1760 ;; Auto vars:     Size  Location     Type
  1761 ;;		None
  1762 ;; Return value:  Size  Location     Type
  1763 ;;                  1    wreg      void 
  1764 ;; Registers used:
  1765 ;;		wreg
  1766 ;; Tracked objects:
  1767 ;;		On entry : 0/0
  1768 ;;		On exit  : 0/0
  1769 ;;		Unchanged: 0/0
  1770 ;; Data sizes:     COMRAM   BANK0   BANK1   BANK2   BANK3   BANK4   BANK5   BANK6   BANK7
  1771 ;;      Params:         0       0       0       0       0       0       0       0       0
  1772 ;;      Locals:         0       0       0       0       0       0       0       0       0
  1773 ;;      Temps:          1       0       0       0       0       0       0       0       0
  1774 ;;      Totals:         1       0       0       0       0       0       0       0       0
  1775 ;;Total ram usage:        1 bytes
  1776 ;; Hardware stack levels used: 1
  1777 ;; This function calls:
  1778 ;;		Nothing
  1779 ;; This function is called by:
  1780 ;;		_OpenXLCD
  1781 ;; This function uses a non-reentrant model
  1782 ;;
  1783                           
  1784                           	psect	text7
  1785   001248                     __ptext7:
  1786                           	callstack 0
  1787   001248                     _DelayXLCD:
  1788                           	callstack 29
  1789   001248                     
  1790                           ;C:/Users/Samuka/Downloads/lab4/ex3/src/main.c: 57: 
  1791   001248  0E2F               	movlw	47
  1792   00124A  6E01               	movwf	??_DelayXLCD^0,c
  1793   00124C  0EC0               	movlw	192
  1794   00124E                     u877:
  1795   00124E  2EE8               	decfsz	wreg,f,c
  1796   001250  D7FE               	bra	u877
  1797   001252  2E01               	decfsz	??_DelayXLCD^0,f,c
  1798   001254  D7FC               	bra	u877
  1799   001256  0012               	return		;funcret
  1800   001258                     __end_of_DelayXLCD:
  1801                           	callstack 0
  1802                           
  1803 ;; *************** function _DelayPORXLCD *****************
  1804 ;; Defined at:
  1805 ;;		line 50 in file "C:/Users/Samuka/Downloads/lab4/ex3/src/main.c"
  1806 ;; Parameters:    Size  Location     Type
  1807 ;;		None
  1808 ;; Auto vars:     Size  Location     Type
  1809 ;;		None
  1810 ;; Return value:  Size  Location     Type
  1811 ;;                  1    wreg      void 
  1812 ;; Registers used:
  1813 ;;		wreg
  1814 ;; Tracked objects:
  1815 ;;		On entry : 0/0
  1816 ;;		On exit  : 0/0
  1817 ;;		Unchanged: 0/0
  1818 ;; Data sizes:     COMRAM   BANK0   BANK1   BANK2   BANK3   BANK4   BANK5   BANK6   BANK7
  1819 ;;      Params:         0       0       0       0       0       0       0       0       0
  1820 ;;      Locals:         0       0       0       0       0       0       0       0       0
  1821 ;;      Temps:          1       0       0       0       0       0       0       0       0
  1822 ;;      Totals:         1       0       0       0       0       0       0       0       0
  1823 ;;Total ram usage:        1 bytes
  1824 ;; Hardware stack levels used: 1
  1825 ;; This function calls:
  1826 ;;		Nothing
  1827 ;; This function is called by:
  1828 ;;		_main
  1829 ;;		_OpenXLCD
  1830 ;; This function uses a non-reentrant model
  1831 ;;
  1832                           
  1833                           	psect	text8
  1834   001258                     __ptext8:
  1835                           	callstack 0
  1836   001258                     _DelayPORXLCD:
  1837                           	callstack 29
  1838   001258                     
  1839                           ;C:/Users/Samuka/Downloads/lab4/ex3/src/main.c: 52:     WriteCmdXLCD(0x01);
  1840   001258  0E7D               	movlw	125
  1841   00125A  6E01               	movwf	??_DelayPORXLCD^0,c
  1842   00125C  0EAC               	movlw	172
  1843   00125E                     u887:
  1844   00125E  2EE8               	decfsz	wreg,f,c
  1845   001260  D7FE               	bra	u887
  1846   001262  2E01               	decfsz	??_DelayPORXLCD^0,f,c
  1847   001264  D7FC               	bra	u887
  1848   001266  0012               	return		;funcret
  1849   001268                     __end_of_DelayPORXLCD:
  1850                           	callstack 0
  1851                           
  1852 ;; *************** function _LCD_PutTemperature *****************
  1853 ;; Defined at:
  1854 ;;		line 136 in file "C:/Users/Samuka/Downloads/lab4/ex3/src/main.c"
  1855 ;; Parameters:    Size  Location     Type
  1856 ;;  num_mili        2   58[COMRAM] unsigned int 
  1857 ;;  buffer          1   60[COMRAM] PTR unsigned char 
  1858 ;;		 -> main@buffer(10), 
  1859 ;; Auto vars:     Size  Location     Type
  1860 ;;  parte_decima    2   63[COMRAM] unsigned int 
  1861 ;;  parte_inteir    2   61[COMRAM] unsigned int 
  1862 ;; Return value:  Size  Location     Type
  1863 ;;                  1    wreg      void 
  1864 ;; Registers used:
  1865 ;;		wreg, fsr1l, fsr1h, fsr2l, fsr2h, status,2, status,0, tblptrl, tblptrh, tblptru, prodl, prodh, cstack
  1866 ;; Tracked objects:
  1867 ;;		On entry : 0/0
  1868 ;;		On exit  : 0/0
  1869 ;;		Unchanged: 0/0
  1870 ;; Data sizes:     COMRAM   BANK0   BANK1   BANK2   BANK3   BANK4   BANK5   BANK6   BANK7
  1871 ;;      Params:         3       0       0       0       0       0       0       0       0
  1872 ;;      Locals:         4       0       0       0       0       0       0       0       0
  1873 ;;      Temps:          0       0       0       0       0       0       0       0       0
  1874 ;;      Totals:         7       0       0       0       0       0       0       0       0
  1875 ;;Total ram usage:        7 bytes
  1876 ;; Hardware stack levels used: 1
  1877 ;; Hardware stack levels required when called: 8
  1878 ;; This function calls:
  1879 ;;		___lwdiv
  1880 ;;		___lwmod
  1881 ;;		_putsXLCD
  1882 ;;		_sprintf
  1883 ;; This function is called by:
  1884 ;;		_main
  1885 ;; This function uses a non-reentrant model
  1886 ;;
  1887                           
  1888                           	psect	text9
  1889   000FF6                     __ptext9:
  1890                           	callstack 0
  1891   000FF6                     _LCD_PutTemperature:
  1892                           	callstack 22
  1893   000FF6  C03B  F001         	movff	LCD_PutTemperature@num_mili,___lwdiv@dividend
  1894   000FFA  C03C  F002         	movff	LCD_PutTemperature@num_mili+1,___lwdiv@dividend+1
  1895   000FFE  0E00               	movlw	0
  1896   001000  6E04               	movwf	(___lwdiv@divisor+1)^0,c
  1897   001002  0E0A               	movlw	10
  1898   001004  6E03               	movwf	___lwdiv@divisor^0,c
  1899   001006  EC5A  F007         	call	___lwdiv	;wreg free
  1900   00100A  C001  F03E         	movff	?___lwdiv,LCD_PutTemperature@parte_inteira
  1901   00100E  C002  F03F         	movff	?___lwdiv+1,LCD_PutTemperature@parte_inteira+1
  1902   001012  C03B  F001         	movff	LCD_PutTemperature@num_mili,___lwmod@dividend
  1903   001016  C03C  F002         	movff	LCD_PutTemperature@num_mili+1,___lwmod@dividend+1
  1904   00101A  0E00               	movlw	0
  1905   00101C  6E04               	movwf	(___lwmod@divisor+1)^0,c
  1906   00101E  0E0A               	movlw	10
  1907   001020  6E03               	movwf	___lwmod@divisor^0,c
  1908   001022  ECC9  F007         	call	___lwmod	;wreg free
  1909   001026  C001  F040         	movff	?___lwmod,LCD_PutTemperature@parte_decimal
  1910   00102A  C002  F041         	movff	?___lwmod+1,LCD_PutTemperature@parte_decimal+1
  1911   00102E  C03D  F029         	movff	LCD_PutTemperature@buffer,sprintf@s
  1912   001032  0E0E               	movlw	low STR_4
  1913   001034  6E2A               	movwf	sprintf@fmt^0,c
  1914   001036  C03E  F02B         	movff	LCD_PutTemperature@parte_inteira,?_sprintf+2
  1915   00103A  C03F  F02C         	movff	LCD_PutTemperature@parte_inteira+1,?_sprintf+3
  1916   00103E  C040  F02D         	movff	LCD_PutTemperature@parte_decimal,?_sprintf+4
  1917   001042  C041  F02E         	movff	LCD_PutTemperature@parte_decimal+1,?_sprintf+5
  1918   001046  ECAA  F008         	call	_sprintf	;wreg free
  1919   00104A  C03D  F002         	movff	LCD_PutTemperature@buffer,putsXLCD@buffer
  1920   00104E  EC6D  F008         	call	_putsXLCD	;wreg free
  1921   001052  0012               	return		;funcret
  1922   001054                     __end_of_LCD_PutTemperature:
  1923                           	callstack 0
  1924                           
  1925 ;; *************** function _sprintf *****************
  1926 ;; Defined at:
  1927 ;;		line 9 in file "C:\Program Files\Microchip\xc8\v3.00\pic\sources\c99\common\nf_sprintf.c"
  1928 ;; Parameters:    Size  Location     Type
  1929 ;;  s               1   40[COMRAM] PTR unsigned char 
  1930 ;;		 -> main@buffer(10), 
  1931 ;;  fmt             1   41[COMRAM] PTR const unsigned char 
  1932 ;;		 -> STR_4(7), 
  1933 ;; Auto vars:     Size  Location     Type
  1934 ;;  f              11   47[COMRAM] struct _IO_FILE
  1935 ;;  ret             2    0        int 
  1936 ;;  ap              1   46[COMRAM] PTR void [1]
  1937 ;;		 -> ?_sprintf(2), 
  1938 ;; Return value:  Size  Location     Type
  1939 ;;                  2   40[COMRAM] int 
  1940 ;; Registers used:
  1941 ;;		wreg, fsr1l, fsr1h, fsr2l, fsr2h, status,2, status,0, tblptrl, tblptrh, tblptru, prodl, prodh, cstack
  1942 ;; Tracked objects:
  1943 ;;		On entry : 0/0
  1944 ;;		On exit  : 0/0
  1945 ;;		Unchanged: 0/0
  1946 ;; Data sizes:     COMRAM   BANK0   BANK1   BANK2   BANK3   BANK4   BANK5   BANK6   BANK7
  1947 ;;      Params:         6       0       0       0       0       0       0       0       0
  1948 ;;      Locals:        12       0       0       0       0       0       0       0       0
  1949 ;;      Temps:          0       0       0       0       0       0       0       0       0
  1950 ;;      Totals:        18       0       0       0       0       0       0       0       0
  1951 ;;Total ram usage:       18 bytes
  1952 ;; Hardware stack levels used: 1
  1953 ;; Hardware stack levels required when called: 7
  1954 ;; This function calls:
  1955 ;;		_vfprintf
  1956 ;; This function is called by:
  1957 ;;		_LCD_PutTemperature
  1958 ;; This function uses a non-reentrant model
  1959 ;;
  1960                           
  1961                           	psect	text10
  1962   001154                     __ptext10:
  1963                           	callstack 0
  1964   001154                     _sprintf:
  1965                           	callstack 22
  1966   001154  0E2B               	movlw	low (?_sprintf+2)
  1967   001156  6E2F               	movwf	sprintf@ap^0,c
  1968   001158  C029  F030         	movff	sprintf@s,sprintf@f
  1969   00115C  0E00               	movlw	0
  1970   00115E  6E33               	movwf	(sprintf@f+3)^0,c
  1971   001160  0E00               	movlw	0
  1972   001162  6E32               	movwf	(sprintf@f+2)^0,c
  1973   001164  0E00               	movlw	0
  1974   001166  6E3A               	movwf	(sprintf@f+10)^0,c
  1975   001168  0E00               	movlw	0
  1976   00116A  6E39               	movwf	(sprintf@f+9)^0,c
  1977   00116C  0E30               	movlw	low sprintf@f
  1978   00116E  6E25               	movwf	vfprintf@fp^0,c
  1979   001170  C02A  F026         	movff	sprintf@fmt,vfprintf@fmt
  1980   001174  0E2F               	movlw	low sprintf@ap
  1981   001176  6E27               	movwf	vfprintf@ap^0,c
  1982   001178  EC4E  F008         	call	_vfprintf	;wreg free
  1983   00117C  5029               	movf	sprintf@s^0,w,c
  1984   00117E  2432               	addwf	(sprintf@f+2)^0,w,c
  1985   001180  6ED9               	movwf	fsr2l,c
  1986   001182  6ADA               	clrf	fsr2h,c
  1987   001184  6ADF               	clrf	indf2,c
  1988   001186  0012               	return		;funcret
  1989   001188                     __end_of_sprintf:
  1990                           	callstack 0
  1991                           
  1992 ;; *************** function _vfprintf *****************
  1993 ;; Defined at:
  1994 ;;		line 1817 in file "C:\Program Files\Microchip\xc8\v3.00\pic\sources\c99\common\doprnt.c"
  1995 ;; Parameters:    Size  Location     Type
  1996 ;;  fp              1   36[COMRAM] PTR struct _IO_FILE
  1997 ;;		 -> sprintf@f(11), 
  1998 ;;  fmt             1   37[COMRAM] PTR const unsigned char 
  1999 ;;		 -> STR_4(7), 
  2000 ;;  ap              1   38[COMRAM] PTR PTR void 
  2001 ;;		 -> sprintf@ap(1), 
  2002 ;; Auto vars:     Size  Location     Type
  2003 ;;  cfmt            1   39[COMRAM] PTR unsigned char 
  2004 ;;		 -> STR_4(7), 
  2005 ;; Return value:  Size  Location     Type
  2006 ;;                  2   36[COMRAM] int 
  2007 ;; Registers used:
  2008 ;;		wreg, fsr1l, fsr1h, fsr2l, fsr2h, status,2, status,0, tblptrl, tblptrh, tblptru, prodl, prodh, cstack
  2009 ;; Tracked objects:
  2010 ;;		On entry : 0/0
  2011 ;;		On exit  : 0/0
  2012 ;;		Unchanged: 0/0
  2013 ;; Data sizes:     COMRAM   BANK0   BANK1   BANK2   BANK3   BANK4   BANK5   BANK6   BANK7
  2014 ;;      Params:         3       0       0       0       0       0       0       0       0
  2015 ;;      Locals:         1       0       0       0       0       0       0       0       0
  2016 ;;      Temps:          0       0       0       0       0       0       0       0       0
  2017 ;;      Totals:         4       0       0       0       0       0       0       0       0
  2018 ;;Total ram usage:        4 bytes
  2019 ;; Hardware stack levels used: 1
  2020 ;; Hardware stack levels required when called: 6
  2021 ;; This function calls:
  2022 ;;		_vfpfcnvrt
  2023 ;; This function is called by:
  2024 ;;		_sprintf
  2025 ;; This function uses a non-reentrant model
  2026 ;;
  2027                           
  2028                           	psect	text11
  2029   00109C                     __ptext11:
  2030                           	callstack 0
  2031   00109C                     _vfprintf:
  2032                           	callstack 22
  2033   00109C                     
  2034                           ;C:\Program Files\Microchip\xc8\v3.00\pic\sources\c99\common\doprnt.c: 1817: int vfprint
      +                          f(FILE *fp, const char *fmt, va_list ap);C:\Program Files\Microchip\xc8\v3.00\pic\source
      +                          s\c99\common\doprnt.c: 1818: {;C:\Program Files\Microchip\xc8\v3.00\pic\sources\c99\comm
      +                          on\doprnt.c: 1820:     char *cfmt;;C:\Program Files\Microchip\xc8\v3.00\pic\sources\c99\
      +                          common\doprnt.c: 1822:     cfmt = (char *)fmt;
  2035   00109C  C026  F028         	movff	vfprintf@fmt,vfprintf@cfmt
  2036                           
  2037                           ;C:\Program Files\Microchip\xc8\v3.00\pic\sources\c99\common\doprnt.c: 1826:     while (
      +                          *cfmt) {
  2038   0010A0  EF5A  F008         	goto	l1598
  2039   0010A4                     l1596:
  2040                           
  2041                           ;C:\Program Files\Microchip\xc8\v3.00\pic\sources\c99\common\doprnt.c: 1830:    vfpfcnvr
      +                          t(fp, &cfmt, ap);
  2042   0010A4  C025  F01D         	movff	vfprintf@fp,vfpfcnvrt@fp
  2043   0010A8  0E28               	movlw	low vfprintf@cfmt
  2044   0010AA  6E1E               	movwf	vfpfcnvrt@fmt^0,c
  2045   0010AC  C027  F01F         	movff	vfprintf@ap,vfpfcnvrt@ap
  2046   0010B0  ECD5  F004         	call	_vfpfcnvrt	;wreg free
  2047   0010B4                     l1598:
  2048                           
  2049                           ;C:\Program Files\Microchip\xc8\v3.00\pic\sources\c99\common\doprnt.c: 1826:     while (
      +                          *cfmt) {
  2050   0010B4  C028  FFF6         	movff	vfprintf@cfmt,tblptrl
  2051   0010B8                     	if	1	;There is more than 1 active tblptr byte
  2052   0010B8  0E08               	movlw	high __smallconst
  2053   0010BA  6EF7               	movwf	tblptrh,c
  2054   0010BC                     	endif
  2055   0010BC                     	if	0	;tblptru may be non-zero
  2056   0010BC                     	endif
  2057   0010BC                     	if	0	;tblptru may be non-zero
  2058   0010BC                     	endif
  2059   0010BC  0008               	tblrd		*
  2060   0010BE  50F5               	movf	tablat,w,c
  2061   0010C0  0900               	iorlw	0
  2062   0010C2  A4D8               	btfss	status,2,c
  2063   0010C4  EF66  F008         	goto	u691
  2064   0010C8  EF68  F008         	goto	u690
  2065   0010CC                     u691:
  2066   0010CC  EF52  F008         	goto	l1596
  2067   0010D0                     u690:
  2068   0010D0                     
  2069                           ;C:\Program Files\Microchip\xc8\v3.00\pic\sources\c99\common\doprnt.c: 1835:  return 0;
  2070   0010D0  0E00               	movlw	0
  2071   0010D2  6E26               	movwf	(?_vfprintf+1)^0,c
  2072   0010D4  0E00               	movlw	0
  2073   0010D6  6E25               	movwf	?_vfprintf^0,c
  2074   0010D8  0012               	return		;funcret
  2075   0010DA                     __end_of_vfprintf:
  2076                           	callstack 0
  2077                           
  2078 ;; *************** function _vfpfcnvrt *****************
  2079 ;; Defined at:
  2080 ;;		line 1177 in file "C:\Program Files\Microchip\xc8\v3.00\pic\sources\c99\common\doprnt.c"
  2081 ;; Parameters:    Size  Location     Type
  2082 ;;  fp              1   28[COMRAM] PTR struct _IO_FILE
  2083 ;;		 -> sprintf@f(11), 
  2084 ;;  fmt             1   29[COMRAM] PTR PTR unsigned char 
  2085 ;;		 -> vfprintf@cfmt(1), 
  2086 ;;  ap              1   30[COMRAM] PTR PTR void 
  2087 ;;		 -> sprintf@ap(1), 
  2088 ;; Auto vars:     Size  Location     Type
  2089 ;;  convarg         4   31[COMRAM] struct .
  2090 ;;  cp              1   35[COMRAM] PTR unsigned char 
  2091 ;;		 -> STR_4(7), 
  2092 ;;  done            1    0        _Bool 
  2093 ;;  c               1    0        unsigned char 
  2094 ;; Return value:  Size  Location     Type
  2095 ;;                  1    wreg      void 
  2096 ;; Registers used:
  2097 ;;		wreg, fsr1l, fsr1h, fsr2l, fsr2h, status,2, status,0, tblptrl, tblptrh, tblptru, prodl, prodh, cstack
  2098 ;; Tracked objects:
  2099 ;;		On entry : 0/0
  2100 ;;		On exit  : 0/0
  2101 ;;		Unchanged: 0/0
  2102 ;; Data sizes:     COMRAM   BANK0   BANK1   BANK2   BANK3   BANK4   BANK5   BANK6   BANK7
  2103 ;;      Params:         3       0       0       0       0       0       0       0       0
  2104 ;;      Locals:         5       0       0       0       0       0       0       0       0
  2105 ;;      Temps:          0       0       0       0       0       0       0       0       0
  2106 ;;      Totals:         8       0       0       0       0       0       0       0       0
  2107 ;;Total ram usage:        8 bytes
  2108 ;; Hardware stack levels used: 1
  2109 ;; Hardware stack levels required when called: 5
  2110 ;; This function calls:
  2111 ;;		_fputc
  2112 ;;		_read_prec_or_width
  2113 ;;		_utoa
  2114 ;; This function is called by:
  2115 ;;		_vfprintf
  2116 ;; This function uses a non-reentrant model
  2117 ;;
  2118                           
  2119                           	psect	text12
  2120   0009AA                     __ptext12:
  2121                           	callstack 0
  2122   0009AA                     _vfpfcnvrt:
  2123                           	callstack 22
  2124   0009AA                     
  2125                           ;C:\Program Files\Microchip\xc8\v3.00\pic\sources\c99\common\doprnt.c: 1177: vfpfcnvrt(F
      +                          ILE *fp, char *fmt[], va_list ap);C:\Program Files\Microchip\xc8\v3.00\pic\sources\c99\c
      +                          ommon\doprnt.c: 1178: {;C:\Program Files\Microchip\xc8\v3.00\pic\sources\c99\common\dopr
      +                          nt.c: 1179:     char c, *cp;;C:\Program Files\Microchip\xc8\v3.00\pic\sources\c99\common
      +                          \doprnt.c: 1180:     _Bool done;;C:\Program Files\Microchip\xc8\v3.00\pic\sources\c99\co
      +                          mmon\doprnt.c: 1188:  } convarg;;C:\Program Files\Microchip\xc8\v3.00\pic\sources\c99\co
      +                          mmon\doprnt.c: 1201:     if ((*fmt)[0] == '%') {
  2126   0009AA  501E               	movf	vfpfcnvrt@fmt^0,w,c
  2127   0009AC  6ED9               	movwf	fsr2l,c
  2128   0009AE  6ADA               	clrf	fsr2h,c
  2129   0009B0  CFDF FFF6          	movff	indf2,tblptrl
  2130   0009B4                     	if	1	;There is more than 1 active tblptr byte
  2131   0009B4  0E08               	movlw	high __smallconst
  2132   0009B6  6EF7               	movwf	tblptrh,c
  2133   0009B8                     	endif
  2134   0009B8                     	if	0	;tblptru may be non-zero
  2135   0009B8                     	endif
  2136   0009B8                     	if	0	;tblptru may be non-zero
  2137   0009B8                     	endif
  2138   0009B8  0008               	tblrd		*
  2139   0009BA  50F5               	movf	tablat,w,c
  2140   0009BC  0A25               	xorlw	37
  2141   0009BE  A4D8               	btfss	status,2,c
  2142   0009C0  EFE4  F004         	goto	u661
  2143   0009C4  EFE6  F004         	goto	u660
  2144   0009C8                     u661:
  2145   0009C8  EF4A  F005         	goto	l1588
  2146   0009CC                     u660:
  2147   0009CC                     
  2148                           ;C:\Program Files\Microchip\xc8\v3.00\pic\sources\c99\common\doprnt.c: 1202:         ++*
      +                          fmt;
  2149   0009CC  501E               	movf	vfpfcnvrt@fmt^0,w,c
  2150   0009CE  6ED9               	movwf	fsr2l,c
  2151   0009D0  6ADA               	clrf	fsr2h,c
  2152   0009D2  2ADF               	incf	indf2,f,c
  2153   0009D4                     
  2154                           ;C:\Program Files\Microchip\xc8\v3.00\pic\sources\c99\common\doprnt.c: 1204:         fla
      +                          gs = width = 0;
  2155   0009D4  0E00               	movlw	0
  2156   0009D6  6E56               	movwf	(_width+1)^0,c
  2157   0009D8  0E00               	movlw	0
  2158   0009DA  6E55               	movwf	_width^0,c
  2159   0009DC  C055  F059         	movff	_width,_flags
  2160   0009E0                     
  2161                           ;C:\Program Files\Microchip\xc8\v3.00\pic\sources\c99\common\doprnt.c: 1205:         pre
      +                          c = -1;
  2162   0009E0  6857               	setf	_prec^0,c
  2163   0009E2  6858               	setf	(_prec+1)^0,c
  2164   0009E4                     
  2165                           ;C:\Program Files\Microchip\xc8\v3.00\pic\sources\c99\common\doprnt.c: 1256:   width = r
      +                          ead_prec_or_width(fmt, ap);
  2166   0009E4  C01E  F001         	movff	vfpfcnvrt@fmt,read_prec_or_width@fmt
  2167   0009E8  C01F  F002         	movff	vfpfcnvrt@ap,read_prec_or_width@ap
  2168   0009EC  ECC3  F006         	call	_read_prec_or_width	;wreg free
  2169   0009F0  C001  F055         	movff	?_read_prec_or_width,_width
  2170   0009F4  C002  F056         	movff	?_read_prec_or_width+1,_width+1
  2171   0009F8                     
  2172                           ;C:\Program Files\Microchip\xc8\v3.00\pic\sources\c99\common\doprnt.c: 1257:   if (width
      +                           < 0) {
  2173   0009F8  BE56               	btfsc	(_width+1)^0,7,c
  2174   0009FA  EF03  F005         	goto	u670
  2175   0009FE  EF01  F005         	goto	u671
  2176   000A02                     u671:
  2177   000A02  EF08  F005         	goto	l1568
  2178   000A06                     u670:
  2179   000A06                     
  2180                           ;C:\Program Files\Microchip\xc8\v3.00\pic\sources\c99\common\doprnt.c: 1258:    flags |=
      +                           (1 << 0);
  2181   000A06  8059               	bsf	_flags^0,0,c
  2182                           
  2183                           ;C:\Program Files\Microchip\xc8\v3.00\pic\sources\c99\common\doprnt.c: 1259:    width = 
      +                          -width;
  2184   000A08  6C55               	negf	_width^0,c
  2185   000A0A  1E56               	comf	(_width+1)^0,f,c
  2186   000A0C  B0D8               	btfsc	status,0,c
  2187   000A0E  2A56               	incf	(_width+1)^0,f,c
  2188   000A10                     l1568:
  2189                           
  2190                           ;C:\Program Files\Microchip\xc8\v3.00\pic\sources\c99\common\doprnt.c: 1439:   if (0
  2191   000A10  501E               	movf	vfpfcnvrt@fmt^0,w,c
  2192   000A12  6ED9               	movwf	fsr2l,c
  2193   000A14  6ADA               	clrf	fsr2h,c
  2194   000A16  50DF               	movf	indf2,w,c
  2195   000A18  6E24               	movwf	vfpfcnvrt@cp^0,c
  2196   000A1A  C024  FFF6         	movff	vfpfcnvrt@cp,tblptrl
  2197   000A1E                     	if	1	;There is more than 1 active tblptr byte
  2198   000A1E  0E08               	movlw	high __smallconst
  2199   000A20  6EF7               	movwf	tblptrh,c
  2200   000A22                     	endif
  2201   000A22                     	if	0	;tblptru may be non-zero
  2202   000A22                     	endif
  2203   000A22                     	if	0	;tblptru may be non-zero
  2204   000A22                     	endif
  2205   000A22  0008               	tblrd		*
  2206   000A24  50F5               	movf	tablat,w,c
  2207   000A26  0A75               	xorlw	117
  2208   000A28  A4D8               	btfss	status,2,c
  2209   000A2A  EF19  F005         	goto	u681
  2210   000A2E  EF1B  F005         	goto	u680
  2211   000A32                     u681:
  2212   000A32  EF44  F005         	goto	l1584
  2213   000A36                     u680:
  2214   000A36                     
  2215                           ;C:\Program Files\Microchip\xc8\v3.00\pic\sources\c99\common\doprnt.c: 1452:     ) {;C:\
      +                          Program Files\Microchip\xc8\v3.00\pic\sources\c99\common\doprnt.c: 1495:    convarg.uint
      +                           = (vfpf_uint_t)(unsigned int)(*(unsigned int *)__va_arg(*(unsigned int **)ap, (unsigned
      +                           int)0));
  2216   000A36  501F               	movf	vfpfcnvrt@ap^0,w,c
  2217   000A38  6ED9               	movwf	fsr2l,c
  2218   000A3A  6ADA               	clrf	fsr2h,c
  2219   000A3C  0E02               	movlw	2
  2220   000A3E  26DF               	addwf	indf2,f,c
  2221   000A40  5CDF               	subwf	indf2,w,c
  2222   000A42  6ED9               	movwf	fsr2l,c
  2223   000A44  6ADA               	clrf	fsr2h,c
  2224   000A46  CFDE F020          	movff	postinc2,vfpfcnvrt@convarg
  2225   000A4A  CFDE F021          	movff	postinc2,vfpfcnvrt@convarg+1
  2226   000A4E                     
  2227                           ;C:\Program Files\Microchip\xc8\v3.00\pic\sources\c99\common\doprnt.c: 1497:    *fmt = c
      +                          p+1;
  2228   000A4E  501E               	movf	vfpfcnvrt@fmt^0,w,c
  2229   000A50  6ED9               	movwf	fsr2l,c
  2230   000A52  6ADA               	clrf	fsr2h,c
  2231   000A54  2824               	incf	vfpfcnvrt@cp^0,w,c
  2232   000A56  6EDF               	movwf	indf2,c
  2233                           
  2234                           ;C:\Program Files\Microchip\xc8\v3.00\pic\sources\c99\common\doprnt.c: 1498:    switch (
      +                          *cp) {
  2235   000A58  EF38  F005         	goto	l1582
  2236   000A5C                     l1576:
  2237                           
  2238                           ;C:\Program Files\Microchip\xc8\v3.00\pic\sources\c99\common\doprnt.c: 1542:      return
      +                           (void) utoa(fp, convarg.uint);;	Return value of _vfpfcnvrt is never used
  2239   000A5C  C01D  F015         	movff	vfpfcnvrt@fp,utoa@fp
  2240   000A60  C020  F016         	movff	vfpfcnvrt@convarg,utoa@d
  2241   000A64  C021  F017         	movff	vfpfcnvrt@convarg+1,utoa@d+1
  2242   000A68  ECC2  F005         	call	_utoa	;wreg free
  2243   000A6C  EF5B  F005         	goto	l892
  2244   000A70                     l1582:
  2245   000A70  C024  FFF6         	movff	vfpfcnvrt@cp,tblptrl
  2246   000A74                     	if	1	;There is more than 1 active tblptr byte
  2247   000A74  0E08               	movlw	high __smallconst
  2248   000A76  6EF7               	movwf	tblptrh,c
  2249   000A78                     	endif
  2250   000A78                     	if	0	;tblptru may be non-zero
  2251   000A78                     	endif
  2252   000A78                     	if	0	;tblptru may be non-zero
  2253   000A78                     	endif
  2254   000A78  0008               	tblrd		*
  2255   000A7A  50F5               	movf	tablat,w,c
  2256                           
  2257                           ; Switch size 1, requested type "simple"
  2258                           ; Number of cases is 1, Range of values is 117 to 117
  2259                           ; switch strategies available:
  2260                           ; Name         Instructions Cycles
  2261                           ; simple_byte            4     3 (average)
  2262                           ;	Chosen strategy is simple_byte
  2263   000A7C  0A75               	xorlw	117	; case 117
  2264   000A7E  B4D8               	btfsc	status,2,c
  2265   000A80  EF2E  F005         	goto	l1576
  2266   000A84  EF44  F005         	goto	l1584
  2267   000A88                     l1584:
  2268                           
  2269                           ;C:\Program Files\Microchip\xc8\v3.00\pic\sources\c99\common\doprnt.c: 1806:         ++*
      +                          fmt;
  2270   000A88  501E               	movf	vfpfcnvrt@fmt^0,w,c
  2271   000A8A  6ED9               	movwf	fsr2l,c
  2272   000A8C  6ADA               	clrf	fsr2h,c
  2273   000A8E  2ADF               	incf	indf2,f,c
  2274   000A90  EF5B  F005         	goto	l892
  2275   000A94                     l1588:
  2276                           
  2277                           ;C:\Program Files\Microchip\xc8\v3.00\pic\sources\c99\common\doprnt.c: 1811:     fputc((
      +                          int)(*fmt)[0], fp);
  2278   000A94  501E               	movf	vfpfcnvrt@fmt^0,w,c
  2279   000A96  6ED9               	movwf	fsr2l,c
  2280   000A98  6ADA               	clrf	fsr2h,c
  2281   000A9A  CFDF FFF6          	movff	indf2,tblptrl
  2282   000A9E                     	if	1	;There is more than 1 active tblptr byte
  2283   000A9E  0E08               	movlw	high __smallconst
  2284   000AA0  6EF7               	movwf	tblptrh,c
  2285   000AA2                     	endif
  2286   000AA2                     	if	0	;tblptru may be non-zero
  2287   000AA2                     	endif
  2288   000AA2                     	if	0	;tblptru may be non-zero
  2289   000AA2                     	endif
  2290   000AA2  0008               	tblrd		*
  2291   000AA4  50F5               	movf	tablat,w,c
  2292   000AA6  6E01               	movwf	fputc@c^0,c
  2293   000AA8  6A02               	clrf	(fputc@c+1)^0,c
  2294   000AAA  C01D  F003         	movff	vfpfcnvrt@fp,fputc@fp
  2295   000AAE  EC1C  F006         	call	_fputc	;wreg free
  2296   000AB2  EF44  F005         	goto	l1584
  2297   000AB6                     l892:
  2298   000AB6  0012               	return		;funcret
  2299   000AB8                     __end_of_vfpfcnvrt:
  2300                           	callstack 0
  2301                           
  2302 ;; *************** function _utoa *****************
  2303 ;; Defined at:
  2304 ;;		line 1001 in file "C:\Program Files\Microchip\xc8\v3.00\pic\sources\c99\common\doprnt.c"
  2305 ;; Parameters:    Size  Location     Type
  2306 ;;  fp              1   20[COMRAM] PTR struct _IO_FILE
  2307 ;;		 -> sprintf@f(11), 
  2308 ;;  d               2   21[COMRAM] unsigned int 
  2309 ;; Auto vars:     Size  Location     Type
  2310 ;;  i               2   26[COMRAM] int 
  2311 ;;  w               2   23[COMRAM] int 
  2312 ;;  p               1   25[COMRAM] _Bool 
  2313 ;; Return value:  Size  Location     Type
  2314 ;;                  1    wreg      void 
  2315 ;; Registers used:
  2316 ;;		wreg, fsr1l, fsr1h, fsr2l, fsr2h, status,2, status,0, cstack
  2317 ;; Tracked objects:
  2318 ;;		On entry : 0/0
  2319 ;;		On exit  : 0/0
  2320 ;;		Unchanged: 0/0
  2321 ;; Data sizes:     COMRAM   BANK0   BANK1   BANK2   BANK3   BANK4   BANK5   BANK6   BANK7
  2322 ;;      Params:         3       0       0       0       0       0       0       0       0
  2323 ;;      Locals:         5       0       0       0       0       0       0       0       0
  2324 ;;      Temps:          0       0       0       0       0       0       0       0       0
  2325 ;;      Totals:         8       0       0       0       0       0       0       0       0
  2326 ;;Total ram usage:        8 bytes
  2327 ;; Hardware stack levels used: 1
  2328 ;; Hardware stack levels required when called: 4
  2329 ;; This function calls:
  2330 ;;		___lwdiv
  2331 ;;		___lwmod
  2332 ;;		_pad
  2333 ;; This function is called by:
  2334 ;;		_vfpfcnvrt
  2335 ;; This function uses a non-reentrant model
  2336 ;;
  2337                           
  2338                           	psect	text13
  2339   000B84                     __ptext13:
  2340                           	callstack 0
  2341   000B84                     _utoa:
  2342                           	callstack 22
  2343   000B84                     
  2344                           ;C:\Program Files\Microchip\xc8\v3.00\pic\sources\c99\common\doprnt.c: 1001: static void
      +                           utoa(FILE *fp, vfpf_uint_t d);C:\Program Files\Microchip\xc8\v3.00\pic\sources\c99\comm
      +                          on\doprnt.c: 1002: {;C:\Program Files\Microchip\xc8\v3.00\pic\sources\c99\common\doprnt.
      +                          c: 1003:     int i, w;;C:\Program Files\Microchip\xc8\v3.00\pic\sources\c99\common\doprn
      +                          t.c: 1007:  _Bool p = 1;
  2345   000B84  0E01               	movlw	1
  2346   000B86  6E1A               	movwf	utoa@p^0,c
  2347   000B88                     
  2348                           ;C:\Program Files\Microchip\xc8\v3.00\pic\sources\c99\common\doprnt.c: 1019:     w = wid
      +                          th;
  2349   000B88  C055  F018         	movff	_width,utoa@w
  2350   000B8C  C056  F019         	movff	_width+1,utoa@w+1
  2351                           
  2352                           ;C:\Program Files\Microchip\xc8\v3.00\pic\sources\c99\common\doprnt.c: 1022:     i = siz
      +                          eof(dbuf) - 1;
  2353   000B90  0E00               	movlw	0
  2354   000B92  6E1C               	movwf	(utoa@i+1)^0,c
  2355   000B94  0E1F               	movlw	31
  2356   000B96  6E1B               	movwf	utoa@i^0,c
  2357   000B98                     
  2358                           ;C:\Program Files\Microchip\xc8\v3.00\pic\sources\c99\common\doprnt.c: 1023:     dbuf[i]
      +                           = '\0';
  2359   000B98  0100               	movlb	0	; () banked
  2360   000B9A  6B7F               	clrf	(_dbuf+31)& (0+255),b
  2361                           
  2362                           ;C:\Program Files\Microchip\xc8\v3.00\pic\sources\c99\common\doprnt.c: 1024:     while (
      +                          i && (d != 0
  2363   000B9C  EFF6  F005         	goto	l1530
  2364   000BA0                     l1520:
  2365                           
  2366                           ;C:\Program Files\Microchip\xc8\v3.00\pic\sources\c99\common\doprnt.c: 1033:     )) {;C:
      +                          \Program Files\Microchip\xc8\v3.00\pic\sources\c99\common\doprnt.c: 1034:         --i;
  2367   000BA0  061B               	decf	utoa@i^0,f,c
  2368   000BA2  A0D8               	btfss	status,0,c
  2369   000BA4  061C               	decf	(utoa@i+1)^0,f,c
  2370   000BA6                     
  2371                           ;C:\Program Files\Microchip\xc8\v3.00\pic\sources\c99\common\doprnt.c: 1035:         dbu
      +                          f[i] = '0' + (d % 10);
  2372   000BA6  501B               	movf	utoa@i^0,w,c
  2373   000BA8  0F60               	addlw	low _dbuf
  2374   000BAA  6ED9               	movwf	fsr2l,c
  2375   000BAC  6ADA               	clrf	fsr2h,c
  2376   000BAE  C016  F001         	movff	utoa@d,___lwmod@dividend
  2377   000BB2  C017  F002         	movff	utoa@d+1,___lwmod@dividend+1
  2378   000BB6  0E00               	movlw	0
  2379   000BB8  6E04               	movwf	(___lwmod@divisor+1)^0,c
  2380   000BBA  0E0A               	movlw	10
  2381   000BBC  6E03               	movwf	___lwmod@divisor^0,c
  2382   000BBE  ECC9  F007         	call	___lwmod	;wreg free
  2383   000BC2  5001               	movf	?___lwmod^0,w,c
  2384   000BC4  0F30               	addlw	48
  2385   000BC6  6EDF               	movwf	indf2,c
  2386   000BC8                     
  2387                           ;C:\Program Files\Microchip\xc8\v3.00\pic\sources\c99\common\doprnt.c: 1039:   p = 0;
  2388   000BC8  6A1A               	clrf	utoa@p^0,c
  2389   000BCA                     
  2390                           ;C:\Program Files\Microchip\xc8\v3.00\pic\sources\c99\common\doprnt.c: 1041:         --w
      +                          ;
  2391   000BCA  0618               	decf	utoa@w^0,f,c
  2392   000BCC  A0D8               	btfss	status,0,c
  2393   000BCE  0619               	decf	(utoa@w+1)^0,f,c
  2394   000BD0                     
  2395                           ;C:\Program Files\Microchip\xc8\v3.00\pic\sources\c99\common\doprnt.c: 1042:         d =
      +                           d / 10;
  2396   000BD0  C016  F001         	movff	utoa@d,___lwdiv@dividend
  2397   000BD4  C017  F002         	movff	utoa@d+1,___lwdiv@dividend+1
  2398   000BD8  0E00               	movlw	0
  2399   000BDA  6E04               	movwf	(___lwdiv@divisor+1)^0,c
  2400   000BDC  0E0A               	movlw	10
  2401   000BDE  6E03               	movwf	___lwdiv@divisor^0,c
  2402   000BE0  EC5A  F007         	call	___lwdiv	;wreg free
  2403   000BE4  C001  F016         	movff	?___lwdiv,utoa@d
  2404   000BE8  C002  F017         	movff	?___lwdiv+1,utoa@d+1
  2405   000BEC                     l1530:
  2406                           
  2407                           ;C:\Program Files\Microchip\xc8\v3.00\pic\sources\c99\common\doprnt.c: 1024:     while (
      +                          i && (d != 0
  2408   000BEC  501B               	movf	utoa@i^0,w,c
  2409   000BEE  101C               	iorwf	(utoa@i+1)^0,w,c
  2410   000BF0  B4D8               	btfsc	status,2,c
  2411   000BF2  EFFD  F005         	goto	u611
  2412   000BF6  EFFF  F005         	goto	u610
  2413   000BFA                     u611:
  2414   000BFA  EF10  F006         	goto	l1536
  2415   000BFE                     u610:
  2416   000BFE  5016               	movf	utoa@d^0,w,c
  2417   000C00  1017               	iorwf	(utoa@d+1)^0,w,c
  2418   000C02  A4D8               	btfss	status,2,c
  2419   000C04  EF06  F006         	goto	u621
  2420   000C08  EF08  F006         	goto	u620
  2421   000C0C                     u621:
  2422   000C0C  EFD0  F005         	goto	l1520
  2423   000C10                     u620:
  2424   000C10  501A               	movf	utoa@p^0,w,c
  2425   000C12  A4D8               	btfss	status,2,c
  2426   000C14  EF0E  F006         	goto	u631
  2427   000C18  EF10  F006         	goto	u630
  2428   000C1C                     u631:
  2429   000C1C  EFD0  F005         	goto	l1520
  2430   000C20                     u630:
  2431   000C20                     l1536:
  2432                           
  2433                           ;C:\Program Files\Microchip\xc8\v3.00\pic\sources\c99\common\doprnt.c: 1046:     return 
      +                          (void) pad(fp, &dbuf[i], w);
  2434   000C20  C015  F00E         	movff	utoa@fp,pad@fp
  2435   000C24  501B               	movf	utoa@i^0,w,c
  2436   000C26  0F60               	addlw	low _dbuf
  2437   000C28  6E0F               	movwf	pad@buf^0,c
  2438   000C2A  C018  F010         	movff	utoa@w,pad@p
  2439   000C2E  C019  F011         	movff	utoa@w+1,pad@p+1
  2440   000C32  EC15  F007         	call	_pad	;wreg free
  2441   000C36  0012               	return		;funcret
  2442   000C38                     __end_of_utoa:
  2443                           	callstack 0
  2444                           
  2445 ;; *************** function _pad *****************
  2446 ;; Defined at:
  2447 ;;		line 193 in file "C:\Program Files\Microchip\xc8\v3.00\pic\sources\c99\common\doprnt.c"
  2448 ;; Parameters:    Size  Location     Type
  2449 ;;  fp              1   13[COMRAM] PTR struct _IO_FILE
  2450 ;;		 -> sprintf@f(11), 
  2451 ;;  buf             1   14[COMRAM] PTR unsigned char 
  2452 ;;		 -> dbuf(32), 
  2453 ;;  p               2   15[COMRAM] int 
  2454 ;; Auto vars:     Size  Location     Type
  2455 ;;  i               2   18[COMRAM] int 
  2456 ;; Return value:  Size  Location     Type
  2457 ;;                  1    wreg      void 
  2458 ;; Registers used:
  2459 ;;		wreg, fsr1l, fsr1h, fsr2l, fsr2h, status,2, status,0, cstack
  2460 ;; Tracked objects:
  2461 ;;		On entry : 0/0
  2462 ;;		On exit  : 0/0
  2463 ;;		Unchanged: 0/0
  2464 ;; Data sizes:     COMRAM   BANK0   BANK1   BANK2   BANK3   BANK4   BANK5   BANK6   BANK7
  2465 ;;      Params:         4       0       0       0       0       0       0       0       0
  2466 ;;      Locals:         2       0       0       0       0       0       0       0       0
  2467 ;;      Temps:          1       0       0       0       0       0       0       0       0
  2468 ;;      Totals:         7       0       0       0       0       0       0       0       0
  2469 ;;Total ram usage:        7 bytes
  2470 ;; Hardware stack levels used: 1
  2471 ;; Hardware stack levels required when called: 3
  2472 ;; This function calls:
  2473 ;;		_fputc
  2474 ;;		_fputs
  2475 ;; This function is called by:
  2476 ;;		_utoa
  2477 ;; This function uses a non-reentrant model
  2478 ;;
  2479                           
  2480                           	psect	text14
  2481   000E2A                     __ptext14:
  2482                           	callstack 0
  2483   000E2A                     _pad:
  2484                           	callstack 22
  2485   000E2A                     
  2486                           ;C:\Program Files\Microchip\xc8\v3.00\pic\sources\c99\common\doprnt.c: 193: static void 
      +                          pad(FILE *fp, char *buf, int p);C:\Program Files\Microchip\xc8\v3.00\pic\sources\c99\com
      +                          mon\doprnt.c: 194: {;C:\Program Files\Microchip\xc8\v3.00\pic\sources\c99\common\doprnt.
      +                          c: 195:     int i;;C:\Program Files\Microchip\xc8\v3.00\pic\sources\c99\common\doprnt.c:
      +                           199:     if (flags & (1 << 0)) {
  2487   000E2A  A059               	btfss	_flags^0,0,c
  2488   000E2C  EF1A  F007         	goto	u571
  2489   000E30  EF1C  F007         	goto	u570
  2490   000E34                     u571:
  2491   000E34  EF22  F007         	goto	l1502
  2492   000E38                     u570:
  2493   000E38                     
  2494                           ;C:\Program Files\Microchip\xc8\v3.00\pic\sources\c99\common\doprnt.c: 200:         fput
      +                          s((const char *)buf, fp);
  2495   000E38  C00F  F009         	movff	pad@buf,fputs@s
  2496   000E3C  C00E  F00A         	movff	pad@fp,fputs@fp
  2497   000E40  EC8C  F008         	call	_fputs	;wreg free
  2498   000E44                     l1502:
  2499                           
  2500                           ;C:\Program Files\Microchip\xc8\v3.00\pic\sources\c99\common\doprnt.c: 205:  if (p < 0) 
      +                          {
  2501   000E44  BE11               	btfsc	(pad@p+1)^0,7,c
  2502   000E46  EF29  F007         	goto	u580
  2503   000E4A  EF27  F007         	goto	u581
  2504   000E4E                     u581:
  2505   000E4E  EF2D  F007         	goto	l861
  2506   000E52                     u580:
  2507   000E52                     
  2508                           ;C:\Program Files\Microchip\xc8\v3.00\pic\sources\c99\common\doprnt.c: 206:   p = 0;
  2509   000E52  0E00               	movlw	0
  2510   000E54  6E11               	movwf	(pad@p+1)^0,c
  2511   000E56  0E00               	movlw	0
  2512   000E58  6E10               	movwf	pad@p^0,c
  2513   000E5A                     l861:
  2514                           
  2515                           ;C:\Program Files\Microchip\xc8\v3.00\pic\sources\c99\common\doprnt.c: 208:     i = 0;
  2516   000E5A  0E00               	movlw	0
  2517   000E5C  6E14               	movwf	(pad@i+1)^0,c
  2518   000E5E  0E00               	movlw	0
  2519   000E60  6E13               	movwf	pad@i^0,c
  2520                           
  2521                           ;C:\Program Files\Microchip\xc8\v3.00\pic\sources\c99\common\doprnt.c: 209:     while (i
      +                           < p) {
  2522   000E62  EF3D  F007         	goto	l1510
  2523   000E66                     l1506:
  2524                           
  2525                           ;C:\Program Files\Microchip\xc8\v3.00\pic\sources\c99\common\doprnt.c: 210:         fput
      +                          c(' ', fp);
  2526   000E66  0E00               	movlw	0
  2527   000E68  6E02               	movwf	(fputc@c+1)^0,c
  2528   000E6A  0E20               	movlw	32
  2529   000E6C  6E01               	movwf	fputc@c^0,c
  2530   000E6E  C00E  F003         	movff	pad@fp,fputc@fp
  2531   000E72  EC1C  F006         	call	_fputc	;wreg free
  2532   000E76                     
  2533                           ;C:\Program Files\Microchip\xc8\v3.00\pic\sources\c99\common\doprnt.c: 211:         ++i;
  2534   000E76  4A13               	infsnz	pad@i^0,f,c
  2535   000E78  2A14               	incf	(pad@i+1)^0,f,c
  2536   000E7A                     l1510:
  2537                           
  2538                           ;C:\Program Files\Microchip\xc8\v3.00\pic\sources\c99\common\doprnt.c: 209:     while (i
      +                           < p) {
  2539   000E7A  5010               	movf	pad@p^0,w,c
  2540   000E7C  5C13               	subwf	pad@i^0,w,c
  2541   000E7E  5014               	movf	(pad@i+1)^0,w,c
  2542   000E80  0A80               	xorlw	128
  2543   000E82  6E12               	movwf	??_pad^0,c
  2544   000E84  5011               	movf	(pad@p+1)^0,w,c
  2545   000E86  0A80               	xorlw	128
  2546   000E88  5812               	subwfb	??_pad^0,w,c
  2547   000E8A  A0D8               	btfss	status,0,c
  2548   000E8C  EF4A  F007         	goto	u591
  2549   000E90  EF4C  F007         	goto	u590
  2550   000E94                     u591:
  2551   000E94  EF33  F007         	goto	l1506
  2552   000E98                     u590:
  2553   000E98                     
  2554                           ;C:\Program Files\Microchip\xc8\v3.00\pic\sources\c99\common\doprnt.c: 216:     if (!(fl
      +                          ags & (1 << 0))) {
  2555   000E98  B059               	btfsc	_flags^0,0,c
  2556   000E9A  EF51  F007         	goto	u601
  2557   000E9E  EF53  F007         	goto	u600
  2558   000EA2                     u601:
  2559   000EA2  EF59  F007         	goto	l866
  2560   000EA6                     u600:
  2561   000EA6                     
  2562                           ;C:\Program Files\Microchip\xc8\v3.00\pic\sources\c99\common\doprnt.c: 218:         fput
      +                          s((const char *)buf, fp);
  2563   000EA6  C00F  F009         	movff	pad@buf,fputs@s
  2564   000EAA  C00E  F00A         	movff	pad@fp,fputs@fp
  2565   000EAE  EC8C  F008         	call	_fputs	;wreg free
  2566   000EB2                     l866:
  2567   000EB2  0012               	return		;funcret
  2568   000EB4                     __end_of_pad:
  2569                           	callstack 0
  2570                           
  2571 ;; *************** function _fputs *****************
  2572 ;; Defined at:
  2573 ;;		line 8 in file "C:\Program Files\Microchip\xc8\v3.00\pic\sources\c99\common\nf_fputs.c"
  2574 ;; Parameters:    Size  Location     Type
  2575 ;;  s               1    8[COMRAM] PTR const unsigned char 
  2576 ;;		 -> dbuf(32), 
  2577 ;;  fp              1    9[COMRAM] PTR struct _IO_FILE
  2578 ;;		 -> sprintf@f(11), 
  2579 ;; Auto vars:     Size  Location     Type
  2580 ;;  i               2   11[COMRAM] int 
  2581 ;;  c               1   10[COMRAM] unsigned char 
  2582 ;; Return value:  Size  Location     Type
  2583 ;;                  2    8[COMRAM] int 
  2584 ;; Registers used:
  2585 ;;		wreg, fsr1l, fsr1h, fsr2l, fsr2h, status,2, status,0, cstack
  2586 ;; Tracked objects:
  2587 ;;		On entry : 0/0
  2588 ;;		On exit  : 0/0
  2589 ;;		Unchanged: 0/0
  2590 ;; Data sizes:     COMRAM   BANK0   BANK1   BANK2   BANK3   BANK4   BANK5   BANK6   BANK7
  2591 ;;      Params:         2       0       0       0       0       0       0       0       0
  2592 ;;      Locals:         3       0       0       0       0       0       0       0       0
  2593 ;;      Temps:          0       0       0       0       0       0       0       0       0
  2594 ;;      Totals:         5       0       0       0       0       0       0       0       0
  2595 ;;Total ram usage:        5 bytes
  2596 ;; Hardware stack levels used: 1
  2597 ;; Hardware stack levels required when called: 2
  2598 ;; This function calls:
  2599 ;;		_fputc
  2600 ;; This function is called by:
  2601 ;;		_pad
  2602 ;; This function uses a non-reentrant model
  2603 ;;
  2604                           
  2605                           	psect	text15
  2606   001118                     __ptext15:
  2607                           	callstack 0
  2608   001118                     _fputs:
  2609                           	callstack 22
  2610   001118  0E00               	movlw	0
  2611   00111A  6E0D               	movwf	(fputs@i+1)^0,c
  2612   00111C  0E00               	movlw	0
  2613   00111E  6E0C               	movwf	fputs@i^0,c
  2614   001120  EF9B  F008         	goto	l1458
  2615   001124                     l1454:
  2616   001124  C00B  F001         	movff	fputs@c,fputc@c
  2617   001128  6A02               	clrf	(fputc@c+1)^0,c
  2618   00112A  C00A  F003         	movff	fputs@fp,fputc@fp
  2619   00112E  EC1C  F006         	call	_fputc	;wreg free
  2620   001132  4A0C               	infsnz	fputs@i^0,f,c
  2621   001134  2A0D               	incf	(fputs@i+1)^0,f,c
  2622   001136                     l1458:
  2623   001136  5009               	movf	fputs@s^0,w,c
  2624   001138  240C               	addwf	fputs@i^0,w,c
  2625   00113A  6ED9               	movwf	fsr2l,c
  2626   00113C  6ADA               	clrf	fsr2h,c
  2627   00113E  50DF               	movf	indf2,w,c
  2628   001140  6E0B               	movwf	fputs@c^0,c
  2629   001142  500B               	movf	fputs@c^0,w,c
  2630   001144  A4D8               	btfss	status,2,c
  2631   001146  EFA7  F008         	goto	u501
  2632   00114A  EFA9  F008         	goto	u500
  2633   00114E                     u501:
  2634   00114E  EF92  F008         	goto	l1454
  2635   001152                     u500:
  2636   001152  0012               	return		;funcret
  2637   001154                     __end_of_fputs:
  2638                           	callstack 0
  2639                           
  2640 ;; *************** function _fputc *****************
  2641 ;; Defined at:
  2642 ;;		line 8 in file "C:\Program Files\Microchip\xc8\v3.00\pic\sources\c99\common\nf_fputc.c"
  2643 ;; Parameters:    Size  Location     Type
  2644 ;;  c               2    0[COMRAM] int 
  2645 ;;  fp              1    2[COMRAM] PTR struct _IO_FILE
  2646 ;;		 -> sprintf@f(11), 
  2647 ;; Auto vars:     Size  Location     Type
  2648 ;;		None
  2649 ;; Return value:  Size  Location     Type
  2650 ;;                  2    0[COMRAM] int 
  2651 ;; Registers used:
  2652 ;;		wreg, fsr1l, fsr1h, fsr2l, fsr2h, status,2, status,0, cstack
  2653 ;; Tracked objects:
  2654 ;;		On entry : 0/0
  2655 ;;		On exit  : 0/0
  2656 ;;		Unchanged: 0/0
  2657 ;; Data sizes:     COMRAM   BANK0   BANK1   BANK2   BANK3   BANK4   BANK5   BANK6   BANK7
  2658 ;;      Params:         3       0       0       0       0       0       0       0       0
  2659 ;;      Locals:         0       0       0       0       0       0       0       0       0
  2660 ;;      Temps:          5       0       0       0       0       0       0       0       0
  2661 ;;      Totals:         8       0       0       0       0       0       0       0       0
  2662 ;;Total ram usage:        8 bytes
  2663 ;; Hardware stack levels used: 1
  2664 ;; Hardware stack levels required when called: 1
  2665 ;; This function calls:
  2666 ;;		_putch
  2667 ;; This function is called by:
  2668 ;;		_pad
  2669 ;;		_vfpfcnvrt
  2670 ;;		_fputs
  2671 ;; This function uses a non-reentrant model
  2672 ;;
  2673                           
  2674                           	psect	text16
  2675   000C38                     __ptext16:
  2676                           	callstack 0
  2677   000C38                     _fputc:
  2678                           	callstack 22
  2679   000C38  5003               	movf	fputc@fp^0,w,c
  2680   000C3A  B4D8               	btfsc	status,2,c
  2681   000C3C  EF22  F006         	goto	u461
  2682   000C40  EF24  F006         	goto	u460
  2683   000C44                     u461:
  2684   000C44  EF2C  F006         	goto	l1442
  2685   000C48                     u460:
  2686   000C48  5003               	movf	fputc@fp^0,w,c
  2687   000C4A  A4D8               	btfss	status,2,c
  2688   000C4C  EF2A  F006         	goto	u471
  2689   000C50  EF2C  F006         	goto	u470
  2690   000C54                     u471:
  2691   000C54  EF31  F006         	goto	l1444
  2692   000C58                     u470:
  2693   000C58                     l1442:
  2694   000C58  5001               	movf	fputc@c^0,w,c
  2695   000C5A  EC38  F009         	call	_putch
  2696   000C5E  EF70  F006         	goto	l911
  2697   000C62                     l1444:
  2698   000C62  5003               	movf	fputc@fp^0,w,c
  2699   000C64  6ED9               	movwf	fsr2l,c
  2700   000C66  6ADA               	clrf	fsr2h,c
  2701   000C68  0E09               	movlw	9
  2702   000C6A  26D9               	addwf	fsr2l,f,c
  2703   000C6C  50DE               	movf	postinc2,w,c
  2704   000C6E  10DE               	iorwf	postinc2,w,c
  2705   000C70  B4D8               	btfsc	status,2,c
  2706   000C72  EF3D  F006         	goto	u481
  2707   000C76  EF3F  F006         	goto	u480
  2708   000C7A                     u481:
  2709   000C7A  EF58  F006         	goto	l1448
  2710   000C7E                     u480:
  2711   000C7E  5003               	movf	fputc@fp^0,w,c
  2712   000C80  6ED9               	movwf	fsr2l,c
  2713   000C82  6ADA               	clrf	fsr2h,c
  2714   000C84  0E09               	movlw	9
  2715   000C86  26D9               	addwf	fsr2l,f,c
  2716   000C88  5003               	movf	fputc@fp^0,w,c
  2717   000C8A  6EE1               	movwf	fsr1l,c
  2718   000C8C  6AE2               	clrf	fsr1h,c
  2719   000C8E  0E02               	movlw	2
  2720   000C90  26E1               	addwf	fsr1l,f,c
  2721   000C92  50DE               	movf	postinc2,w,c
  2722   000C94  5CE6               	subwf	postinc1,w,c
  2723   000C96  50E6               	movf	postinc1,w,c
  2724   000C98  0A80               	xorlw	128
  2725   000C9A  6E08               	movwf	(??_fputc+4)^0,c
  2726   000C9C  50DE               	movf	postinc2,w,c
  2727   000C9E  0A80               	xorlw	128
  2728   000CA0  5808               	subwfb	(??_fputc+4)^0,w,c
  2729   000CA2  B0D8               	btfsc	status,0,c
  2730   000CA4  EF56  F006         	goto	u491
  2731   000CA8  EF58  F006         	goto	u490
  2732   000CAC                     u491:
  2733   000CAC  EF70  F006         	goto	l911
  2734   000CB0                     u490:
  2735   000CB0                     l1448:
  2736   000CB0  5003               	movf	fputc@fp^0,w,c
  2737   000CB2  6ED9               	movwf	fsr2l,c
  2738   000CB4  6ADA               	clrf	fsr2h,c
  2739   000CB6  0E02               	movlw	2
  2740   000CB8  26D9               	addwf	fsr2l,f,c
  2741   000CBA  50DF               	movf	indf2,w,c
  2742   000CBC  6E04               	movwf	??_fputc^0,c
  2743   000CBE  5003               	movf	fputc@fp^0,w,c
  2744   000CC0  6ED9               	movwf	fsr2l,c
  2745   000CC2  6ADA               	clrf	fsr2h,c
  2746   000CC4  50DF               	movf	indf2,w,c
  2747   000CC6  2404               	addwf	??_fputc^0,w,c
  2748   000CC8  6ED9               	movwf	fsr2l,c
  2749   000CCA  6ADA               	clrf	fsr2h,c
  2750   000CCC  C001  FFDF         	movff	fputc@c,indf2
  2751   000CD0  5003               	movf	fputc@fp^0,w,c
  2752   000CD2  6ED9               	movwf	fsr2l,c
  2753   000CD4  6ADA               	clrf	fsr2h,c
  2754   000CD6  0E02               	movlw	2
  2755   000CD8  26D9               	addwf	fsr2l,f,c
  2756   000CDA  2ADE               	incf	postinc2,f,c
  2757   000CDC  0E00               	movlw	0
  2758   000CDE  22DD               	addwfc	postdec2,f,c
  2759   000CE0                     l911:
  2760   000CE0  0012               	return		;funcret
  2761   000CE2                     __end_of_fputc:
  2762                           	callstack 0
  2763                           
  2764 ;; *************** function _putch *****************
  2765 ;; Defined at:
  2766 ;;		line 7 in file "C:\Program Files\Microchip\xc8\v3.00\pic\sources\c99\common\putch.c"
  2767 ;; Parameters:    Size  Location     Type
  2768 ;;  c               1    wreg     unsigned char 
  2769 ;; Auto vars:     Size  Location     Type
  2770 ;;  c               1    0[COMRAM] unsigned char 
  2771 ;; Return value:  Size  Location     Type
  2772 ;;                  1    wreg      void 
  2773 ;; Registers used:
  2774 ;;		wreg
  2775 ;; Tracked objects:
  2776 ;;		On entry : 0/0
  2777 ;;		On exit  : 0/0
  2778 ;;		Unchanged: 0/0
  2779 ;; Data sizes:     COMRAM   BANK0   BANK1   BANK2   BANK3   BANK4   BANK5   BANK6   BANK7
  2780 ;;      Params:         0       0       0       0       0       0       0       0       0
  2781 ;;      Locals:         0       0       0       0       0       0       0       0       0
  2782 ;;      Temps:          0       0       0       0       0       0       0       0       0
  2783 ;;      Totals:         0       0       0       0       0       0       0       0       0
  2784 ;;Total ram usage:        0 bytes
  2785 ;; Hardware stack levels used: 1
  2786 ;; This function calls:
  2787 ;;		Nothing
  2788 ;; This function is called by:
  2789 ;;		_fputc
  2790 ;; This function uses a non-reentrant model
  2791 ;;
  2792                           
  2793                           	psect	text17
  2794   001270                     __ptext17:
  2795                           	callstack 0
  2796   001270                     _putch:
  2797                           	callstack 22
  2798   001270  0012               	return		;funcret
  2799   001272                     __end_of_putch:
  2800                           	callstack 0
  2801                           
  2802 ;; *************** function ___lwmod *****************
  2803 ;; Defined at:
  2804 ;;		line 7 in file "C:\Program Files\Microchip\xc8\v3.00\pic\sources\c99\common\lwmod.c"
  2805 ;; Parameters:    Size  Location     Type
  2806 ;;  dividend        2    0[COMRAM] unsigned int 
  2807 ;;  divisor         2    2[COMRAM] unsigned int 
  2808 ;; Auto vars:     Size  Location     Type
  2809 ;;  counter         1    4[COMRAM] unsigned char 
  2810 ;; Return value:  Size  Location     Type
  2811 ;;                  2    0[COMRAM] unsigned int 
  2812 ;; Registers used:
  2813 ;;		wreg, status,2, status,0
  2814 ;; Tracked objects:
  2815 ;;		On entry : 0/0
  2816 ;;		On exit  : 0/0
  2817 ;;		Unchanged: 0/0
  2818 ;; Data sizes:     COMRAM   BANK0   BANK1   BANK2   BANK3   BANK4   BANK5   BANK6   BANK7
  2819 ;;      Params:         4       0       0       0       0       0       0       0       0
  2820 ;;      Locals:         1       0       0       0       0       0       0       0       0
  2821 ;;      Temps:          0       0       0       0       0       0       0       0       0
  2822 ;;      Totals:         5       0       0       0       0       0       0       0       0
  2823 ;;Total ram usage:        5 bytes
  2824 ;; Hardware stack levels used: 1
  2825 ;; This function calls:
  2826 ;;		Nothing
  2827 ;; This function is called by:
  2828 ;;		_LCD_PutTemperature
  2829 ;;		_utoa
  2830 ;; This function uses a non-reentrant model
  2831 ;;
  2832                           
  2833                           	psect	text18
  2834   000F92                     __ptext18:
  2835                           	callstack 0
  2836   000F92                     ___lwmod:
  2837                           	callstack 25
  2838   000F92  5003               	movf	___lwmod@divisor^0,w,c
  2839   000F94  1004               	iorwf	(___lwmod@divisor+1)^0,w,c
  2840   000F96  B4D8               	btfsc	status,2,c
  2841   000F98  EFD0  F007         	goto	u541
  2842   000F9C  EFD2  F007         	goto	u540
  2843   000FA0                     u541:
  2844   000FA0  EFF6  F007         	goto	l666
  2845   000FA4                     u540:
  2846   000FA4  0E01               	movlw	1
  2847   000FA6  6E05               	movwf	___lwmod@counter^0,c
  2848   000FA8  EFDA  F007         	goto	l1488
  2849   000FAC                     l1486:
  2850   000FAC  90D8               	bcf	status,0,c
  2851   000FAE  3603               	rlcf	___lwmod@divisor^0,f,c
  2852   000FB0  3604               	rlcf	(___lwmod@divisor+1)^0,f,c
  2853   000FB2  2A05               	incf	___lwmod@counter^0,f,c
  2854   000FB4                     l1488:
  2855   000FB4  AE04               	btfss	(___lwmod@divisor+1)^0,7,c
  2856   000FB6  EFDF  F007         	goto	u551
  2857   000FBA  EFE1  F007         	goto	u550
  2858   000FBE                     u551:
  2859   000FBE  EFD6  F007         	goto	l1486
  2860   000FC2                     u550:
  2861   000FC2                     l1490:
  2862   000FC2  5003               	movf	___lwmod@divisor^0,w,c
  2863   000FC4  5C01               	subwf	___lwmod@dividend^0,w,c
  2864   000FC6  5004               	movf	(___lwmod@divisor+1)^0,w,c
  2865   000FC8  5802               	subwfb	(___lwmod@dividend+1)^0,w,c
  2866   000FCA  A0D8               	btfss	status,0,c
  2867   000FCC  EFEA  F007         	goto	u561
  2868   000FD0  EFEC  F007         	goto	u560
  2869   000FD4                     u561:
  2870   000FD4  EFF0  F007         	goto	l1494
  2871   000FD8                     u560:
  2872   000FD8  5003               	movf	___lwmod@divisor^0,w,c
  2873   000FDA  5E01               	subwf	___lwmod@dividend^0,f,c
  2874   000FDC  5004               	movf	(___lwmod@divisor+1)^0,w,c
  2875   000FDE  5A02               	subwfb	(___lwmod@dividend+1)^0,f,c
  2876   000FE0                     l1494:
  2877   000FE0  90D8               	bcf	status,0,c
  2878   000FE2  3204               	rrcf	(___lwmod@divisor+1)^0,f,c
  2879   000FE4  3203               	rrcf	___lwmod@divisor^0,f,c
  2880   000FE6  2E05               	decfsz	___lwmod@counter^0,f,c
  2881   000FE8  EFE1  F007         	goto	l1490
  2882   000FEC                     l666:
  2883   000FEC  C001  F001         	movff	___lwmod@dividend,?___lwmod
  2884   000FF0  C002  F002         	movff	___lwmod@dividend+1,?___lwmod+1
  2885   000FF4  0012               	return		;funcret
  2886   000FF6                     __end_of___lwmod:
  2887                           	callstack 0
  2888                           
  2889 ;; *************** function ___lwdiv *****************
  2890 ;; Defined at:
  2891 ;;		line 7 in file "C:\Program Files\Microchip\xc8\v3.00\pic\sources\c99\common\lwdiv.c"
  2892 ;; Parameters:    Size  Location     Type
  2893 ;;  dividend        2    0[COMRAM] unsigned int 
  2894 ;;  divisor         2    2[COMRAM] unsigned int 
  2895 ;; Auto vars:     Size  Location     Type
  2896 ;;  quotient        2    4[COMRAM] unsigned int 
  2897 ;;  counter         1    6[COMRAM] unsigned char 
  2898 ;; Return value:  Size  Location     Type
  2899 ;;                  2    0[COMRAM] unsigned int 
  2900 ;; Registers used:
  2901 ;;		wreg, status,2, status,0
  2902 ;; Tracked objects:
  2903 ;;		On entry : 0/0
  2904 ;;		On exit  : 0/0
  2905 ;;		Unchanged: 0/0
  2906 ;; Data sizes:     COMRAM   BANK0   BANK1   BANK2   BANK3   BANK4   BANK5   BANK6   BANK7
  2907 ;;      Params:         4       0       0       0       0       0       0       0       0
  2908 ;;      Locals:         3       0       0       0       0       0       0       0       0
  2909 ;;      Temps:          0       0       0       0       0       0       0       0       0
  2910 ;;      Totals:         7       0       0       0       0       0       0       0       0
  2911 ;;Total ram usage:        7 bytes
  2912 ;; Hardware stack levels used: 1
  2913 ;; This function calls:
  2914 ;;		Nothing
  2915 ;; This function is called by:
  2916 ;;		_LCD_PutTemperature
  2917 ;;		_utoa
  2918 ;; This function uses a non-reentrant model
  2919 ;;
  2920                           
  2921                           	psect	text19
  2922   000EB4                     __ptext19:
  2923                           	callstack 0
  2924   000EB4                     ___lwdiv:
  2925                           	callstack 25
  2926   000EB4  0E00               	movlw	0
  2927   000EB6  6E06               	movwf	(___lwdiv@quotient+1)^0,c
  2928   000EB8  0E00               	movlw	0
  2929   000EBA  6E05               	movwf	___lwdiv@quotient^0,c
  2930   000EBC  5003               	movf	___lwdiv@divisor^0,w,c
  2931   000EBE  1004               	iorwf	(___lwdiv@divisor+1)^0,w,c
  2932   000EC0  B4D8               	btfsc	status,2,c
  2933   000EC2  EF65  F007         	goto	u511
  2934   000EC6  EF67  F007         	goto	u510
  2935   000ECA                     u511:
  2936   000ECA  EF8F  F007         	goto	l656
  2937   000ECE                     u510:
  2938   000ECE  0E01               	movlw	1
  2939   000ED0  6E07               	movwf	___lwdiv@counter^0,c
  2940   000ED2  EF6F  F007         	goto	l1468
  2941   000ED6                     l1466:
  2942   000ED6  90D8               	bcf	status,0,c
  2943   000ED8  3603               	rlcf	___lwdiv@divisor^0,f,c
  2944   000EDA  3604               	rlcf	(___lwdiv@divisor+1)^0,f,c
  2945   000EDC  2A07               	incf	___lwdiv@counter^0,f,c
  2946   000EDE                     l1468:
  2947   000EDE  AE04               	btfss	(___lwdiv@divisor+1)^0,7,c
  2948   000EE0  EF74  F007         	goto	u521
  2949   000EE4  EF76  F007         	goto	u520
  2950   000EE8                     u521:
  2951   000EE8  EF6B  F007         	goto	l1466
  2952   000EEC                     u520:
  2953   000EEC                     l1470:
  2954   000EEC  90D8               	bcf	status,0,c
  2955   000EEE  3605               	rlcf	___lwdiv@quotient^0,f,c
  2956   000EF0  3606               	rlcf	(___lwdiv@quotient+1)^0,f,c
  2957   000EF2  5003               	movf	___lwdiv@divisor^0,w,c
  2958   000EF4  5C01               	subwf	___lwdiv@dividend^0,w,c
  2959   000EF6  5004               	movf	(___lwdiv@divisor+1)^0,w,c
  2960   000EF8  5802               	subwfb	(___lwdiv@dividend+1)^0,w,c
  2961   000EFA  A0D8               	btfss	status,0,c
  2962   000EFC  EF82  F007         	goto	u531
  2963   000F00  EF84  F007         	goto	u530
  2964   000F04                     u531:
  2965   000F04  EF89  F007         	goto	l1478
  2966   000F08                     u530:
  2967   000F08  5003               	movf	___lwdiv@divisor^0,w,c
  2968   000F0A  5E01               	subwf	___lwdiv@dividend^0,f,c
  2969   000F0C  5004               	movf	(___lwdiv@divisor+1)^0,w,c
  2970   000F0E  5A02               	subwfb	(___lwdiv@dividend+1)^0,f,c
  2971   000F10  8005               	bsf	___lwdiv@quotient^0,0,c
  2972   000F12                     l1478:
  2973   000F12  90D8               	bcf	status,0,c
  2974   000F14  3204               	rrcf	(___lwdiv@divisor+1)^0,f,c
  2975   000F16  3203               	rrcf	___lwdiv@divisor^0,f,c
  2976   000F18  2E07               	decfsz	___lwdiv@counter^0,f,c
  2977   000F1A  EF76  F007         	goto	l1470
  2978   000F1E                     l656:
  2979   000F1E  C005  F001         	movff	___lwdiv@quotient,?___lwdiv
  2980   000F22  C006  F002         	movff	___lwdiv@quotient+1,?___lwdiv+1
  2981   000F26  0012               	return		;funcret
  2982   000F28                     __end_of___lwdiv:
  2983                           	callstack 0
  2984                           
  2985 ;; *************** function _read_prec_or_width *****************
  2986 ;; Defined at:
  2987 ;;		line 1158 in file "C:\Program Files\Microchip\xc8\v3.00\pic\sources\c99\common\doprnt.c"
  2988 ;; Parameters:    Size  Location     Type
  2989 ;;  fmt             1    0[COMRAM] PTR PTR const unsigned c
  2990 ;;		 -> vfprintf@cfmt(1), 
  2991 ;;  ap              1    1[COMRAM] PTR PTR void [1]
  2992 ;;		 -> sprintf@ap(1), 
  2993 ;; Auto vars:     Size  Location     Type
  2994 ;;  c               1    4[COMRAM] unsigned char 
  2995 ;;  n               2    5[COMRAM] int 
  2996 ;; Return value:  Size  Location     Type
  2997 ;;                  2    0[COMRAM] int 
  2998 ;; Registers used:
  2999 ;;		wreg, fsr2l, fsr2h, status,2, status,0, tblptrl, tblptrh, tblptru, prodl, prodh
  3000 ;; Tracked objects:
  3001 ;;		On entry : 0/0
  3002 ;;		On exit  : 0/0
  3003 ;;		Unchanged: 0/0
  3004 ;; Data sizes:     COMRAM   BANK0   BANK1   BANK2   BANK3   BANK4   BANK5   BANK6   BANK7
  3005 ;;      Params:         2       0       0       0       0       0       0       0       0
  3006 ;;      Locals:         3       0       0       0       0       0       0       0       0
  3007 ;;      Temps:          2       0       0       0       0       0       0       0       0
  3008 ;;      Totals:         7       0       0       0       0       0       0       0       0
  3009 ;;Total ram usage:        7 bytes
  3010 ;; Hardware stack levels used: 1
  3011 ;; This function calls:
  3012 ;;		Nothing
  3013 ;; This function is called by:
  3014 ;;		_vfpfcnvrt
  3015 ;; This function uses a non-reentrant model
  3016 ;;
  3017                           
  3018                           	psect	text20
  3019   000D86                     __ptext20:
  3020                           	callstack 0
  3021   000D86                     _read_prec_or_width:
  3022                           	callstack 26
  3023   000D86                     
  3024                           ;C:\Program Files\Microchip\xc8\v3.00\pic\sources\c99\common\doprnt.c: 1159:     int n =
      +                           0;
  3025   000D86  0E00               	movlw	0
  3026   000D88  6E07               	movwf	(read_prec_or_width@n+1)^0,c
  3027   000D8A  0E00               	movlw	0
  3028   000D8C  6E06               	movwf	read_prec_or_width@n^0,c
  3029   000D8E                     
  3030                           ;C:\Program Files\Microchip\xc8\v3.00\pic\sources\c99\common\doprnt.c: 1160:     if ((*f
      +                          mt)[0] == '*') {
  3031   000D8E  5001               	movf	read_prec_or_width@fmt^0,w,c
  3032   000D90  6ED9               	movwf	fsr2l,c
  3033   000D92  6ADA               	clrf	fsr2h,c
  3034   000D94  CFDF FFF6          	movff	indf2,tblptrl
  3035   000D98                     	if	1	;There is more than 1 active tblptr byte
  3036   000D98  0E08               	movlw	high __smallconst
  3037   000D9A  6EF7               	movwf	tblptrh,c
  3038   000D9C                     	endif
  3039   000D9C                     	if	0	;tblptru may be non-zero
  3040   000D9C                     	endif
  3041   000D9C                     	if	0	;tblptru may be non-zero
  3042   000D9C                     	endif
  3043   000D9C  0008               	tblrd		*
  3044   000D9E  50F5               	movf	tablat,w,c
  3045   000DA0  0A2A               	xorlw	42
  3046   000DA2  A4D8               	btfss	status,2,c
  3047   000DA4  EFD6  F006         	goto	u641
  3048   000DA8  EFD8  F006         	goto	u640
  3049   000DAC                     u641:
  3050   000DAC  EFFD  F006         	goto	l1552
  3051   000DB0                     u640:
  3052   000DB0                     
  3053                           ;C:\Program Files\Microchip\xc8\v3.00\pic\sources\c99\common\doprnt.c: 1161:         ++*
      +                          fmt;
  3054   000DB0  5001               	movf	read_prec_or_width@fmt^0,w,c
  3055   000DB2  6ED9               	movwf	fsr2l,c
  3056   000DB4  6ADA               	clrf	fsr2h,c
  3057   000DB6  2ADF               	incf	indf2,f,c
  3058   000DB8                     
  3059                           ;C:\Program Files\Microchip\xc8\v3.00\pic\sources\c99\common\doprnt.c: 1162:         n =
      +                           (*(int *)__va_arg(*(int **)*ap, (int)0));
  3060   000DB8  5002               	movf	read_prec_or_width@ap^0,w,c
  3061   000DBA  6ED9               	movwf	fsr2l,c
  3062   000DBC  6ADA               	clrf	fsr2h,c
  3063   000DBE  0E02               	movlw	2
  3064   000DC0  26DF               	addwf	indf2,f,c
  3065   000DC2  5CDF               	subwf	indf2,w,c
  3066   000DC4  6ED9               	movwf	fsr2l,c
  3067   000DC6  6ADA               	clrf	fsr2h,c
  3068   000DC8  CFDE F006          	movff	postinc2,read_prec_or_width@n
  3069   000DCC  CFDE F007          	movff	postinc2,read_prec_or_width@n+1
  3070                           
  3071                           ;C:\Program Files\Microchip\xc8\v3.00\pic\sources\c99\common\doprnt.c: 1163:     } else 
      +                          {
  3072   000DD0  EF10  F007         	goto	l878
  3073   000DD4                     l1548:
  3074                           
  3075                           ;C:\Program Files\Microchip\xc8\v3.00\pic\sources\c99\common\doprnt.c: 1166:            
      +                           n = n * 10 + c;
  3076   000DD4  0E0A               	movlw	10
  3077   000DD6  0206               	mulwf	read_prec_or_width@n^0,c
  3078   000DD8  CFF3 F003          	movff	prodl,??_read_prec_or_width
  3079   000DDC  CFF4 F004          	movff	prodh,??_read_prec_or_width+1
  3080   000DE0  0207               	mulwf	(read_prec_or_width@n+1)^0,c
  3081   000DE2  50F3               	movf	prodl,w,c
  3082   000DE4  2604               	addwf	(??_read_prec_or_width+1)^0,f,c
  3083   000DE6  5005               	movf	read_prec_or_width@c^0,w,c
  3084   000DE8  2403               	addwf	??_read_prec_or_width^0,w,c
  3085   000DEA  6E06               	movwf	read_prec_or_width@n^0,c
  3086   000DEC  0E00               	movlw	0
  3087   000DEE  2004               	addwfc	(??_read_prec_or_width+1)^0,w,c
  3088   000DF0  6E07               	movwf	(read_prec_or_width@n+1)^0,c
  3089   000DF2                     
  3090                           ;C:\Program Files\Microchip\xc8\v3.00\pic\sources\c99\common\doprnt.c: 1167:            
      +                           ++*fmt;
  3091   000DF2  5001               	movf	read_prec_or_width@fmt^0,w,c
  3092   000DF4  6ED9               	movwf	fsr2l,c
  3093   000DF6  6ADA               	clrf	fsr2h,c
  3094   000DF8  2ADF               	incf	indf2,f,c
  3095   000DFA                     l1552:
  3096                           
  3097                           ;C:\Program Files\Microchip\xc8\v3.00\pic\sources\c99\common\doprnt.c: 1165:         whi
      +                          le ((c = ((unsigned)(*fmt)[0]) - '0') < 10) {
  3098   000DFA  5001               	movf	read_prec_or_width@fmt^0,w,c
  3099   000DFC  6ED9               	movwf	fsr2l,c
  3100   000DFE  6ADA               	clrf	fsr2h,c
  3101   000E00  CFDF FFF6          	movff	indf2,tblptrl
  3102   000E04                     	if	1	;There is more than 1 active tblptr byte
  3103   000E04  0E08               	movlw	high __smallconst
  3104   000E06  6EF7               	movwf	tblptrh,c
  3105   000E08                     	endif
  3106   000E08                     	if	0	;tblptru may be non-zero
  3107   000E08                     	endif
  3108   000E08                     	if	0	;tblptru may be non-zero
  3109   000E08                     	endif
  3110   000E08  0008               	tblrd		*
  3111   000E0A  50F5               	movf	tablat,w,c
  3112   000E0C  0FD0               	addlw	208
  3113   000E0E  6E05               	movwf	read_prec_or_width@c^0,c
  3114   000E10  0E09               	movlw	9
  3115   000E12  6405               	cpfsgt	read_prec_or_width@c^0,c
  3116   000E14  EF0E  F007         	goto	u651
  3117   000E18  EF10  F007         	goto	u650
  3118   000E1C                     u651:
  3119   000E1C  EFEA  F006         	goto	l1548
  3120   000E20                     u650:
  3121   000E20                     l878:
  3122                           
  3123                           ;C:\Program Files\Microchip\xc8\v3.00\pic\sources\c99\common\doprnt.c: 1170:     return 
      +                          n;
  3124   000E20  C006  F001         	movff	read_prec_or_width@n,?_read_prec_or_width
  3125   000E24  C007  F002         	movff	read_prec_or_width@n+1,?_read_prec_or_width+1
  3126   000E28  0012               	return		;funcret
  3127   000E2A                     __end_of_read_prec_or_width:
  3128                           	callstack 0
  3129                           
  3130 ;; *************** function _putsXLCD *****************
  3131 ;; Defined at:
  3132 ;;		line 242 in file "C:/Users/Samuka/Downloads/lab4/ex3/src/xlcd.c"
  3133 ;; Parameters:    Size  Location     Type
  3134 ;;  buffer          1    1[COMRAM] PTR const unsigned char 
  3135 ;;		 -> main@buffer(10), 
  3136 ;; Auto vars:     Size  Location     Type
  3137 ;;		None
  3138 ;; Return value:  Size  Location     Type
  3139 ;;                  1    wreg      void 
  3140 ;; Registers used:
  3141 ;;		wreg, fsr2l, fsr2h, status,2, status,0, cstack
  3142 ;; Tracked objects:
  3143 ;;		On entry : 0/0
  3144 ;;		On exit  : 0/0
  3145 ;;		Unchanged: 0/0
  3146 ;; Data sizes:     COMRAM   BANK0   BANK1   BANK2   BANK3   BANK4   BANK5   BANK6   BANK7
  3147 ;;      Params:         1       0       0       0       0       0       0       0       0
  3148 ;;      Locals:         0       0       0       0       0       0       0       0       0
  3149 ;;      Temps:          0       0       0       0       0       0       0       0       0
  3150 ;;      Totals:         1       0       0       0       0       0       0       0       0
  3151 ;;Total ram usage:        1 bytes
  3152 ;; Hardware stack levels used: 1
  3153 ;; Hardware stack levels required when called: 2
  3154 ;; This function calls:
  3155 ;;		_BusyXLCD
  3156 ;;		_WriteDataXLCD
  3157 ;; This function is called by:
  3158 ;;		_LCD_PutTemperature
  3159 ;; This function uses a non-reentrant model
  3160 ;;
  3161                           
  3162                           	psect	text21
  3163   0010DA                     __ptext21:
  3164                           	callstack 0
  3165   0010DA                     _putsXLCD:
  3166                           	callstack 27
  3167   0010DA                     
  3168                           ;C:/Users/Samuka/Downloads/lab4/ex3/src/xlcd.c: 242: void putsXLCD(const char *buffer);C
      +                          :/Users/Samuka/Downloads/lab4/ex3/src/xlcd.c: 243: {;C:/Users/Samuka/Downloads/lab4/ex3/
      +                          src/xlcd.c: 244:         while(*buffer)
  3169   0010DA  EF80  F008         	goto	l1624
  3170   0010DE                     l1618:
  3171   0010DE  EC19  F009         	call	_BusyXLCD	;wreg free
  3172   0010E2  0900               	iorlw	0
  3173   0010E4  A4D8               	btfss	status,2,c
  3174   0010E6  EF77  F008         	goto	u701
  3175   0010EA  EF79  F008         	goto	u700
  3176   0010EE                     u701:
  3177   0010EE  EF6F  F008         	goto	l1618
  3178   0010F2                     u700:
  3179   0010F2                     
  3180                           ;C:/Users/Samuka/Downloads/lab4/ex3/src/xlcd.c: 247:                 WriteDataXLCD(*buff
      +                          er);
  3181   0010F2  5002               	movf	putsXLCD@buffer^0,w,c
  3182   0010F4  6ED9               	movwf	fsr2l,c
  3183   0010F6  6ADA               	clrf	fsr2h,c
  3184   0010F8  50DF               	movf	indf2,w,c
  3185   0010FA  EC0A  F009         	call	_WriteDataXLCD
  3186   0010FE                     
  3187                           ;C:/Users/Samuka/Downloads/lab4/ex3/src/xlcd.c: 248:                 buffer++;
  3188   0010FE  2A02               	incf	putsXLCD@buffer^0,f,c
  3189   001100                     l1624:
  3190                           
  3191                           ;C:/Users/Samuka/Downloads/lab4/ex3/src/xlcd.c: 244:         while(*buffer)
  3192   001100  5002               	movf	putsXLCD@buffer^0,w,c
  3193   001102  6ED9               	movwf	fsr2l,c
  3194   001104  6ADA               	clrf	fsr2h,c
  3195   001106  50DF               	movf	indf2,w,c
  3196   001108  A4D8               	btfss	status,2,c
  3197   00110A  EF89  F008         	goto	u711
  3198   00110E  EF8B  F008         	goto	u710
  3199   001112                     u711:
  3200   001112  EF6F  F008         	goto	l1618
  3201   001116                     u710:
  3202   001116  0012               	return		;funcret
  3203   001118                     __end_of_putsXLCD:
  3204                           	callstack 0
  3205                           
  3206 ;; *************** function _WriteDataXLCD *****************
  3207 ;; Defined at:
  3208 ;;		line 544 in file "C:/Users/Samuka/Downloads/lab4/ex3/src/xlcd.c"
  3209 ;; Parameters:    Size  Location     Type
  3210 ;;  data            1    wreg     unsigned char 
  3211 ;; Auto vars:     Size  Location     Type
  3212 ;;  data            1    0[COMRAM] unsigned char 
  3213 ;; Return value:  Size  Location     Type
  3214 ;;                  1    wreg      void 
  3215 ;; Registers used:
  3216 ;;		wreg, cstack
  3217 ;; Tracked objects:
  3218 ;;		On entry : 0/0
  3219 ;;		On exit  : 0/0
  3220 ;;		Unchanged: 0/0
  3221 ;; Data sizes:     COMRAM   BANK0   BANK1   BANK2   BANK3   BANK4   BANK5   BANK6   BANK7
  3222 ;;      Params:         0       0       0       0       0       0       0       0       0
  3223 ;;      Locals:         1       0       0       0       0       0       0       0       0
  3224 ;;      Temps:          0       0       0       0       0       0       0       0       0
  3225 ;;      Totals:         1       0       0       0       0       0       0       0       0
  3226 ;;Total ram usage:        1 bytes
  3227 ;; Hardware stack levels used: 1
  3228 ;; Hardware stack levels required when called: 1
  3229 ;; This function calls:
  3230 ;;		_DelayFor18TCY
  3231 ;; This function is called by:
  3232 ;;		_main
  3233 ;;		_putrsXLCD
  3234 ;;		_putsXLCD
  3235 ;; This function uses a non-reentrant model
  3236 ;;
  3237                           
  3238                           	psect	text22
  3239   001214                     __ptext22:
  3240                           	callstack 0
  3241   001214                     _WriteDataXLCD:
  3242                           	callstack 28
  3243                           
  3244                           ;incstack = 0
  3245                           ;WriteDataXLCD@data stored from wreg
  3246   001214  6E01               	movwf	WriteDataXLCD@data^0,c
  3247   001216                     
  3248                           ;C:/Users/Samuka/Downloads/lab4/ex3/src/xlcd.c: 544: void WriteDataXLCD(char data);C:/Us
      +                          ers/Samuka/Downloads/lab4/ex3/src/xlcd.c: 545: {;C:/Users/Samuka/Downloads/lab4/ex3/src/
      +                          xlcd.c: 547:         TRISD = 0;
  3249   001216  6A95               	clrf	149,c	;volatile
  3250   001218                     
  3251                           ;C:/Users/Samuka/Downloads/lab4/ex3/src/xlcd.c: 548:         PORTD = data;
  3252   001218  C001  FF83         	movff	WriteDataXLCD@data,3971	;volatile
  3253   00121C                     
  3254                           ;C:/Users/Samuka/Downloads/lab4/ex3/src/xlcd.c: 549:         LATEbits.LATE0 = 1;
  3255   00121C  808D               	bsf	141,0,c	;volatile
  3256   00121E                     
  3257                           ;C:/Users/Samuka/Downloads/lab4/ex3/src/xlcd.c: 550:         LATEbits.LATE2 = 0;
  3258   00121E  948D               	bcf	141,2,c	;volatile
  3259   001220                     
  3260                           ;C:/Users/Samuka/Downloads/lab4/ex3/src/xlcd.c: 551:         DelayFor18TCY();
  3261   001220  EC34  F009         	call	_DelayFor18TCY	;wreg free
  3262   001224                     
  3263                           ;C:/Users/Samuka/Downloads/lab4/ex3/src/xlcd.c: 552:         LATEbits.LATE1 = 1;
  3264   001224  828D               	bsf	141,1,c	;volatile
  3265   001226                     
  3266                           ;C:/Users/Samuka/Downloads/lab4/ex3/src/xlcd.c: 553:         DelayFor18TCY();
  3267   001226  EC34  F009         	call	_DelayFor18TCY	;wreg free
  3268   00122A                     
  3269                           ;C:/Users/Samuka/Downloads/lab4/ex3/src/xlcd.c: 554:         LATEbits.LATE1 = 0;
  3270   00122A  928D               	bcf	141,1,c	;volatile
  3271   00122C                     
  3272                           ;C:/Users/Samuka/Downloads/lab4/ex3/src/xlcd.c: 555:         LATEbits.LATE0 = 0;
  3273   00122C  908D               	bcf	141,0,c	;volatile
  3274   00122E                     
  3275                           ;C:/Users/Samuka/Downloads/lab4/ex3/src/xlcd.c: 556:         TRISD = 0xff;
  3276   00122E  6895               	setf	149,c	;volatile
  3277   001230  0012               	return		;funcret
  3278   001232                     __end_of_WriteDataXLCD:
  3279                           	callstack 0
  3280                           
  3281 ;; *************** function _BusyXLCD *****************
  3282 ;; Defined at:
  3283 ;;		line 150 in file "C:/Users/Samuka/Downloads/lab4/ex3/src/xlcd.c"
  3284 ;; Parameters:    Size  Location     Type
  3285 ;;		None
  3286 ;; Auto vars:     Size  Location     Type
  3287 ;;		None
  3288 ;; Return value:  Size  Location     Type
  3289 ;;                  1    wreg      unsigned char 
  3290 ;; Registers used:
  3291 ;;		wreg, cstack
  3292 ;; Tracked objects:
  3293 ;;		On entry : 0/0
  3294 ;;		On exit  : 0/0
  3295 ;;		Unchanged: 0/0
  3296 ;; Data sizes:     COMRAM   BANK0   BANK1   BANK2   BANK3   BANK4   BANK5   BANK6   BANK7
  3297 ;;      Params:         0       0       0       0       0       0       0       0       0
  3298 ;;      Locals:         0       0       0       0       0       0       0       0       0
  3299 ;;      Temps:          0       0       0       0       0       0       0       0       0
  3300 ;;      Totals:         0       0       0       0       0       0       0       0       0
  3301 ;;Total ram usage:        0 bytes
  3302 ;; Hardware stack levels used: 1
  3303 ;; Hardware stack levels required when called: 1
  3304 ;; This function calls:
  3305 ;;		_DelayFor18TCY
  3306 ;; This function is called by:
  3307 ;;		_main
  3308 ;;		_OpenXLCD
  3309 ;;		_putrsXLCD
  3310 ;;		_putsXLCD
  3311 ;; This function uses a non-reentrant model
  3312 ;;
  3313                           
  3314                           	psect	text23
  3315   001232                     __ptext23:
  3316                           	callstack 0
  3317   001232                     _BusyXLCD:
  3318                           	callstack 28
  3319   001232                     
  3320                           ;C:/Users/Samuka/Downloads/lab4/ex3/src/xlcd.c: 152:         LATEbits.LATE2 = 1;
  3321   001232  848D               	bsf	141,2,c	;volatile
  3322                           
  3323                           ;C:/Users/Samuka/Downloads/lab4/ex3/src/xlcd.c: 153:         LATEbits.LATE0 = 0;
  3324   001234  908D               	bcf	141,0,c	;volatile
  3325   001236                     
  3326                           ;C:/Users/Samuka/Downloads/lab4/ex3/src/xlcd.c: 154:         DelayFor18TCY();
  3327   001236  EC34  F009         	call	_DelayFor18TCY	;wreg free
  3328   00123A                     
  3329                           ;C:/Users/Samuka/Downloads/lab4/ex3/src/xlcd.c: 155:         LATEbits.LATE1 = 1;
  3330   00123A  828D               	bsf	141,1,c	;volatile
  3331                           
  3332                           ;C:/Users/Samuka/Downloads/lab4/ex3/src/xlcd.c: 156:         DelayFor18TCY();
  3333   00123C  EC34  F009         	call	_DelayFor18TCY	;wreg free
  3334   001240                     
  3335                           ;C:/Users/Samuka/Downloads/lab4/ex3/src/xlcd.c: 175:         LATEbits.LATE1 = 0;
  3336   001240  928D               	bcf	141,1,c	;volatile
  3337   001242                     
  3338                           ;C:/Users/Samuka/Downloads/lab4/ex3/src/xlcd.c: 176:         LATEbits.LATE2 = 0;
  3339   001242  948D               	bcf	141,2,c	;volatile
  3340   001244                     
  3341                           ;C:/Users/Samuka/Downloads/lab4/ex3/src/xlcd.c: 177:         return 0;
  3342   001244  0E00               	movlw	0
  3343   001246  0012               	return		;funcret
  3344   001248                     __end_of_BusyXLCD:
  3345                           	callstack 0
  3346                           
  3347 ;; *************** function _DelayFor18TCY *****************
  3348 ;; Defined at:
  3349 ;;		line 45 in file "C:/Users/Samuka/Downloads/lab4/ex3/src/main.c"
  3350 ;; Parameters:    Size  Location     Type
  3351 ;;		None
  3352 ;; Auto vars:     Size  Location     Type
  3353 ;;		None
  3354 ;; Return value:  Size  Location     Type
  3355 ;;                  1    wreg      void 
  3356 ;; Registers used:
  3357 ;;		wreg
  3358 ;; Tracked objects:
  3359 ;;		On entry : 0/0
  3360 ;;		On exit  : 0/0
  3361 ;;		Unchanged: 0/0
  3362 ;; Data sizes:     COMRAM   BANK0   BANK1   BANK2   BANK3   BANK4   BANK5   BANK6   BANK7
  3363 ;;      Params:         0       0       0       0       0       0       0       0       0
  3364 ;;      Locals:         0       0       0       0       0       0       0       0       0
  3365 ;;      Temps:          0       0       0       0       0       0       0       0       0
  3366 ;;      Totals:         0       0       0       0       0       0       0       0       0
  3367 ;;Total ram usage:        0 bytes
  3368 ;; Hardware stack levels used: 1
  3369 ;; This function calls:
  3370 ;;		Nothing
  3371 ;; This function is called by:
  3372 ;;		_main
  3373 ;;		_OpenXLCD
  3374 ;;		_BusyXLCD
  3375 ;;		_SetDDRamAddr
  3376 ;;		_WriteCmdXLCD
  3377 ;;		_WriteDataXLCD
  3378 ;;		_ReadAddrXLCD
  3379 ;;		_ReadDataXLCD
  3380 ;;		_SetCGRamAddr
  3381 ;; This function uses a non-reentrant model
  3382 ;;
  3383                           
  3384                           	psect	text24
  3385   001268                     __ptext24:
  3386                           	callstack 0
  3387   001268                     _DelayFor18TCY:
  3388                           	callstack 28
  3389   001268                     
  3390                           ;C:/Users/Samuka/Downloads/lab4/ex3/src/main.c: 47:     TRISEbits.TRISE1 = 0;
  3391   001268  0E28               	movlw	40
  3392   00126A                     u897:
  3393   00126A  2EE8               	decfsz	wreg,f,c
  3394   00126C  D7FE               	bra	u897
  3395   00126E  0012               	return		;funcret
  3396   001270                     __end_of_DelayFor18TCY:
  3397                           	callstack 0
  3398                           
  3399 ;; *************** function _AD_Read *****************
  3400 ;; Defined at:
  3401 ;;		line 129 in file "C:/Users/Samuka/Downloads/lab4/ex3/src/main.c"
  3402 ;; Parameters:    Size  Location     Type
  3403 ;;		None
  3404 ;; Auto vars:     Size  Location     Type
  3405 ;;		None
  3406 ;; Return value:  Size  Location     Type
  3407 ;;                  2    0[COMRAM] unsigned int 
  3408 ;; Registers used:
  3409 ;;		wreg, status,2, status,0
  3410 ;; Tracked objects:
  3411 ;;		On entry : 0/0
  3412 ;;		On exit  : 0/0
  3413 ;;		Unchanged: 0/0
  3414 ;; Data sizes:     COMRAM   BANK0   BANK1   BANK2   BANK3   BANK4   BANK5   BANK6   BANK7
  3415 ;;      Params:         2       0       0       0       0       0       0       0       0
  3416 ;;      Locals:         0       0       0       0       0       0       0       0       0
  3417 ;;      Temps:          2       0       0       0       0       0       0       0       0
  3418 ;;      Totals:         4       0       0       0       0       0       0       0       0
  3419 ;;Total ram usage:        4 bytes
  3420 ;; Hardware stack levels used: 1
  3421 ;; This function calls:
  3422 ;;		Nothing
  3423 ;; This function is called by:
  3424 ;;		_main
  3425 ;; This function uses a non-reentrant model
  3426 ;;
  3427                           
  3428                           	psect	text25
  3429   001188                     __ptext25:
  3430                           	callstack 0
  3431   001188                     _AD_Read:
  3432                           	callstack 30
  3433   001188  0E50               	movlw	80
  3434   00118A                     u907:
  3435   00118A  2EE8               	decfsz	wreg,f,c
  3436   00118C  D7FE               	bra	u907
  3437   00118E  82C2               	bsf	194,1,c	;volatile
  3438   001190                     l77:
  3439   001190  B2C2               	btfsc	194,1,c	;volatile
  3440   001192  EFCD  F008         	goto	u741
  3441   001196  EFCF  F008         	goto	u740
  3442   00119A                     u741:
  3443   00119A  EFC8  F008         	goto	l77
  3444   00119E                     u740:
  3445   00119E  50C4               	movf	196,w,c	;volatile
  3446   0011A0  6E04               	movwf	(??_AD_Read+1)^0,c
  3447   0011A2  6A03               	clrf	??_AD_Read^0,c
  3448   0011A4  50C3               	movf	195,w,c	;volatile
  3449   0011A6  2403               	addwf	??_AD_Read^0,w,c
  3450   0011A8  6E01               	movwf	?_AD_Read^0,c
  3451   0011AA  0E00               	movlw	0
  3452   0011AC  2004               	addwfc	(??_AD_Read+1)^0,w,c
  3453   0011AE  6E02               	movwf	(?_AD_Read+1)^0,c
  3454   0011B0  0012               	return		;funcret
  3455   0011B2                     __end_of_AD_Read:
  3456                           	callstack 0
  3457                           
  3458                           	psect	rparam
  3459   000001                     ___rparam_used  equ	1
  3460   000000                     ___param_bank   equ	0
  3461   000000                     __Lparam        equ	__Lrparam
  3462   000000                     __Hparam        equ	__Hrparam
  3463                           
  3464                           	psect	idloc
  3465                           
  3466                           ;Config register IDLOC0 @ 0x200000
  3467                           ;	unspecified, using default values
  3468   200000                     	org	2097152
  3469   200000  FF                 	db	255
  3470                           
  3471                           ;Config register IDLOC1 @ 0x200001
  3472                           ;	unspecified, using default values
  3473   200001                     	org	2097153
  3474   200001  FF                 	db	255
  3475                           
  3476                           ;Config register IDLOC2 @ 0x200002
  3477                           ;	unspecified, using default values
  3478   200002                     	org	2097154
  3479   200002  FF                 	db	255
  3480                           
  3481                           ;Config register IDLOC3 @ 0x200003
  3482                           ;	unspecified, using default values
  3483   200003                     	org	2097155
  3484   200003  FF                 	db	255
  3485                           
  3486                           ;Config register IDLOC4 @ 0x200004
  3487                           ;	unspecified, using default values
  3488   200004                     	org	2097156
  3489   200004  FF                 	db	255
  3490                           
  3491                           ;Config register IDLOC5 @ 0x200005
  3492                           ;	unspecified, using default values
  3493   200005                     	org	2097157
  3494   200005  FF                 	db	255
  3495                           
  3496                           ;Config register IDLOC6 @ 0x200006
  3497                           ;	unspecified, using default values
  3498   200006                     	org	2097158
  3499   200006  FF                 	db	255
  3500                           
  3501                           ;Config register IDLOC7 @ 0x200007
  3502                           ;	unspecified, using default values
  3503   200007                     	org	2097159
  3504   200007  FF                 	db	255
  3505                           
  3506                           	psect	config
  3507                           
  3508                           ;Config register CONFIG1L @ 0x300000
  3509                           ;	PLL Prescaler Selection bits
  3510                           ;	PLLDIV = 5, Divide by 5 (20 MHz oscillator input)
  3511                           ;	System Clock Postscaler Selection bits
  3512                           ;	CPUDIV = OSC1_PLL2, [Primary Oscillator Src: /1][96 MHz PLL Src: /2]
  3513                           ;	USB Clock Selection bit (used in Full-Speed USB mode only; UCFG:FSEN = 1)
  3514                           ;	USBDIV = 2, USB clock source comes from the 96 MHz PLL divided by 2
  3515   300000                     	org	3145728
  3516   300000  24                 	db	36
  3517                           
  3518                           ;Config register CONFIG1H @ 0x300001
  3519                           ;	Oscillator Selection bits
  3520                           ;	FOSC = HSPLL_HS, HS oscillator, PLL enabled (HSPLL)
  3521                           ;	Fail-Safe Clock Monitor Enable bit
  3522                           ;	FCMEN = 0x0, unprogrammed default
  3523                           ;	Internal/External Oscillator Switchover bit
  3524                           ;	IESO = 0x0, unprogrammed default
  3525   300001                     	org	3145729
  3526   300001  0E                 	db	14
  3527                           
  3528                           ;Config register CONFIG2L @ 0x300002
  3529                           ;	Power-up Timer Enable bit
  3530                           ;	PWRT = ON, PWRT enabled
  3531                           ;	Brown-out Reset Enable bits
  3532                           ;	BOR = ON, Brown-out Reset enabled in hardware only (SBOREN is disabled)
  3533                           ;	Brown-out Reset Voltage bits
  3534                           ;	BORV = 3, Minimum setting 2.05V
  3535                           ;	USB Voltage Regulator Enable bit
  3536                           ;	VREGEN = ON, USB voltage regulator enabled
  3537   300002                     	org	3145730
  3538   300002  3E                 	db	62
  3539                           
  3540                           ;Config register CONFIG2H @ 0x300003
  3541                           ;	Watchdog Timer Enable bit
  3542                           ;	WDT = OFF, WDT disabled (control is placed on the SWDTEN bit)
  3543                           ;	Watchdog Timer Postscale Select bits
  3544                           ;	WDTPS = 0xF, unprogrammed default
  3545   300003                     	org	3145731
  3546   300003  1E                 	db	30
  3547                           
  3548                           ; Padding undefined space
  3549   300004                     	org	3145732
  3550   300004  FF                 	db	255
  3551                           
  3552                           ;Config register CONFIG3H @ 0x300005
  3553                           ;	CCP2 MUX bit
  3554                           ;	CCP2MX = 0x1, unprogrammed default
  3555                           ;	PORTB A/D Enable bit
  3556                           ;	PBADEN = OFF, PORTB<4:0> pins are configured as digital I/O on Reset
  3557                           ;	Low-Power Timer 1 Oscillator Enable bit
  3558                           ;	LPT1OSC = OFF, Timer1 configured for higher power operation
  3559                           ;	MCLR Pin Enable bit
  3560                           ;	MCLRE = ON, MCLR pin enabled; RE3 input pin disabled
  3561   300005                     	org	3145733
  3562   300005  81                 	db	129
  3563                           
  3564                           ;Config register CONFIG4L @ 0x300006
  3565                           ;	Stack Full/Underflow Reset Enable bit
  3566                           ;	STVREN = ON, Stack full/underflow will cause Reset
  3567                           ;	Single-Supply ICSP Enable bit
  3568                           ;	LVP = OFF, Single-Supply ICSP disabled
  3569                           ;	Dedicated In-Circuit Debug/Programming Port (ICPORT) Enable bit
  3570                           ;	ICPRT = OFF, ICPORT disabled
  3571                           ;	Extended Instruction Set Enable bit
  3572                           ;	XINST = OFF, Instruction set extension and Indexed Addressing mode disabled (Legacy mo
      +                          de)
  3573                           ;	Background Debugger Enable bit
  3574                           ;	DEBUG = OFF, Background debugger disabled, RB6 and RB7 configured as general purpose I
      +                          /O pins
  3575   300006                     	org	3145734
  3576   300006  81                 	db	129
  3577                           
  3578                           ; Padding undefined space
  3579   300007                     	org	3145735
  3580   300007  FF                 	db	255
  3581                           
  3582                           ;Config register CONFIG5L @ 0x300008
  3583                           ;	unspecified, using default values
  3584                           ;	Code Protection bit
  3585                           ;	CP0 = 0x1, unprogrammed default
  3586                           ;	Code Protection bit
  3587                           ;	CP1 = 0x1, unprogrammed default
  3588                           ;	Code Protection bit
  3589                           ;	CP2 = 0x1, unprogrammed default
  3590                           ;	Code Protection bit
  3591                           ;	CP3 = 0x1, unprogrammed default
  3592   300008                     	org	3145736
  3593   300008  0F                 	db	15
  3594                           
  3595                           ;Config register CONFIG5H @ 0x300009
  3596                           ;	unspecified, using default values
  3597                           ;	Boot Block Code Protection bit
  3598                           ;	CPB = 0x1, unprogrammed default
  3599                           ;	Data EEPROM Code Protection bit
  3600                           ;	CPD = 0x1, unprogrammed default
  3601   300009                     	org	3145737
  3602   300009  C0                 	db	192
  3603                           
  3604                           ;Config register CONFIG6L @ 0x30000A
  3605                           ;	unspecified, using default values
  3606                           ;	Write Protection bit
  3607                           ;	WRT0 = 0x1, unprogrammed default
  3608                           ;	Write Protection bit
  3609                           ;	WRT1 = 0x1, unprogrammed default
  3610                           ;	Write Protection bit
  3611                           ;	WRT2 = 0x1, unprogrammed default
  3612                           ;	Write Protection bit
  3613                           ;	WRT3 = 0x1, unprogrammed default
  3614   30000A                     	org	3145738
  3615   30000A  0F                 	db	15
  3616                           
  3617                           ;Config register CONFIG6H @ 0x30000B
  3618                           ;	unspecified, using default values
  3619                           ;	Configuration Register Write Protection bit
  3620                           ;	WRTC = 0x1, unprogrammed default
  3621                           ;	Boot Block Write Protection bit
  3622                           ;	WRTB = 0x1, unprogrammed default
  3623                           ;	Data EEPROM Write Protection bit
  3624                           ;	WRTD = 0x1, unprogrammed default
  3625   30000B                     	org	3145739
  3626   30000B  E0                 	db	224
  3627                           
  3628                           ;Config register CONFIG7L @ 0x30000C
  3629                           ;	unspecified, using default values
  3630                           ;	Table Read Protection bit
  3631                           ;	EBTR0 = 0x1, unprogrammed default
  3632                           ;	Table Read Protection bit
  3633                           ;	EBTR1 = 0x1, unprogrammed default
  3634                           ;	Table Read Protection bit
  3635                           ;	EBTR2 = 0x1, unprogrammed default
  3636                           ;	Table Read Protection bit
  3637                           ;	EBTR3 = 0x1, unprogrammed default
  3638   30000C                     	org	3145740
  3639   30000C  0F                 	db	15
  3640                           
  3641                           ;Config register CONFIG7H @ 0x30000D
  3642                           ;	unspecified, using default values
  3643                           ;	Boot Block Table Read Protection bit
  3644                           ;	EBTRB = 0x1, unprogrammed default
  3645   30000D                     	org	3145741
  3646   30000D  40                 	db	64
  3647                           tosu	equ	0xFFF
  3648                           tosh	equ	0xFFE
  3649                           tosl	equ	0xFFD
  3650                           stkptr	equ	0xFFC
  3651                           pclatu	equ	0xFFB
  3652                           pclath	equ	0xFFA
  3653                           pcl	equ	0xFF9
  3654                           tblptru	equ	0xFF8
  3655                           tblptrh	equ	0xFF7
  3656                           tblptrl	equ	0xFF6
  3657                           tablat	equ	0xFF5
  3658                           prodh	equ	0xFF4
  3659                           prodl	equ	0xFF3
  3660                           indf0	equ	0xFEF
  3661                           postinc0	equ	0xFEE
  3662                           postdec0	equ	0xFED
  3663                           preinc0	equ	0xFEC
  3664                           plusw0	equ	0xFEB
  3665                           fsr0h	equ	0xFEA
  3666                           fsr0l	equ	0xFE9
  3667                           wreg	equ	0xFE8
  3668                           indf1	equ	0xFE7
  3669                           postinc1	equ	0xFE6
  3670                           postdec1	equ	0xFE5
  3671                           preinc1	equ	0xFE4
  3672                           plusw1	equ	0xFE3
  3673                           fsr1h	equ	0xFE2
  3674                           fsr1l	equ	0xFE1
  3675                           bsr	equ	0xFE0
  3676                           indf2	equ	0xFDF
  3677                           postinc2	equ	0xFDE
  3678                           postdec2	equ	0xFDD
  3679                           preinc2	equ	0xFDC
  3680                           plusw2	equ	0xFDB
  3681                           fsr2h	equ	0xFDA
  3682                           fsr2l	equ	0xFD9
  3683                           status	equ	0xFD8

Data Sizes:
    Strings     22
    Constant    0
    Data        0
    BSS         37
    Persistent  0
    Stack       0

Auto Spaces:
    Space          Size  Autos    Used
    COMRAM           95     84      89
    BANK0           160      0      32
    BANK1           256      0       0
    BANK2           256      0       0
    BANK3           256      0       0
    BANK4           256      0       0
    BANK5           256      0       0
    BANK6           256      0       0
    BANK7           256      0       0

Pointer List with Targets:

    f$.$buffer	PTR unsigned char  size(1) Largest target is 10
		 -> main@buffer(COMRAM[10]), 

    f$.$source	PTR const unsigned char  size(2) Largest target is 0

    fputc@fp	PTR struct _IO_FILE size(1) Largest target is 11
		 -> sprintf@f(COMRAM[11]), 

    fputc@fp$.$buffer	PTR unsigned char  size(1) Largest target is 10
		 -> main@buffer(COMRAM[10]), 

    fputc@fp$.$source	PTR const unsigned char  size(2) Largest target is 0

    fputs@fp	PTR struct _IO_FILE size(1) Largest target is 11
		 -> sprintf@f(COMRAM[11]), 

    fputs@s	PTR const unsigned char  size(1) Largest target is 32
		 -> dbuf(BANK0[32]), 

    LCD_PutTemperature@buffer	PTR unsigned char  size(1) Largest target is 10
		 -> main@buffer(COMRAM[10]), 

    pad@buf	PTR unsigned char  size(1) Largest target is 32
		 -> dbuf(BANK0[32]), 

    pad@fp	PTR struct _IO_FILE size(1) Largest target is 11
		 -> sprintf@f(COMRAM[11]), 

    putrsXLCD@buffer	PTR const unsigned char  size(1) Largest target is 13
		 -> STR_1(CODE[13]), STR_2(CODE[2]), STR_3(CODE[2]), 

    putsXLCD@buffer	PTR const unsigned char  size(1) Largest target is 10
		 -> main@buffer(COMRAM[10]), 

    read_prec_or_width@ap	PTR PTR void [1] size(1) Largest target is 1
		 -> sprintf@ap(COMRAM[1]), 

    read_prec_or_width@fmt	PTR PTR const unsigned char  size(1) Largest target is 1
		 -> vfprintf@cfmt(COMRAM[1]), 

    S828$buffer	PTR unsigned char  size(1) Largest target is 10
		 -> main@buffer(COMRAM[10]), 

    S828$source	PTR const unsigned char  size(2) Largest target is 0

    sprintf@ap	PTR void [1] size(1) Largest target is 2
		 -> ?_sprintf(COMRAM[2]), 

    sprintf@fmt	PTR const unsigned char  size(1) Largest target is 7
		 -> STR_4(CODE[7]), 

    sprintf@s	PTR unsigned char  size(1) Largest target is 10
		 -> main@buffer(COMRAM[10]), 

    utoa@fp	PTR struct _IO_FILE size(1) Largest target is 11
		 -> sprintf@f(COMRAM[11]), 

    vfpfcnvrt@ap	PTR PTR void  size(1) Largest target is 1
		 -> sprintf@ap(COMRAM[1]), 

    vfpfcnvrt@cp	PTR unsigned char  size(1) Largest target is 7
		 -> STR_4(CODE[7]), 

    vfpfcnvrt@fmt	PTR PTR unsigned char  size(1) Largest target is 1
		 -> vfprintf@cfmt(COMRAM[1]), 

    vfpfcnvrt@fp	PTR struct _IO_FILE size(1) Largest target is 11
		 -> sprintf@f(COMRAM[11]), 

    vfprintf@ap	PTR PTR void  size(1) Largest target is 1
		 -> sprintf@ap(COMRAM[1]), 

    vfprintf@cfmt	PTR unsigned char  size(1) Largest target is 7
		 -> STR_4(CODE[7]), 

    vfprintf@fmt	PTR const unsigned char  size(1) Largest target is 7
		 -> STR_4(CODE[7]), 

    vfprintf@fp	PTR struct _IO_FILE size(1) Largest target is 11
		 -> sprintf@f(COMRAM[11]), 


Critical Paths under _main in COMRAM

    _main->_LCD_PutTemperature
    _putrsXLCD->_WriteDataXLCD
    ___lldiv->___lmul
    _OpenXLCD->_DelayPORXLCD
    _OpenXLCD->_DelayXLCD
    _OpenXLCD->_SetDDRamAddr
    _OpenXLCD->_WriteCmdXLCD
    _LCD_PutTemperature->_sprintf
    _sprintf->_vfprintf
    _vfprintf->_vfpfcnvrt
    _vfpfcnvrt->_utoa
    _utoa->_pad
    _pad->_fputs
    _fputs->_fputc
    _putsXLCD->_WriteDataXLCD

Critical Paths under _main in BANK0

    None.

Critical Paths under _main in BANK1

    None.

Critical Paths under _main in BANK2

    None.

Critical Paths under _main in BANK3

    None.

Critical Paths under _main in BANK4

    None.

Critical Paths under _main in BANK5

    None.

Critical Paths under _main in BANK6

    None.

Critical Paths under _main in BANK7

    None.

Call Graph Tables:

 ---------------------------------------------------------------------------------
 (Depth) Function   	        Calls       Base Space   Used Autos Params    Refs
 ---------------------------------------------------------------------------------
 (0) _main                                                19    19      0    3542
                                             65 COMRAM    19    19      0
                            _AD_Read
                           _BusyXLCD
                      _DelayFor18TCY
                       _DelayPORXLCD
                 _LCD_PutTemperature
                           _OpenXLCD
                       _SetDDRamAddr
                       _WriteCmdXLCD
                      _WriteDataXLCD
                            ___lldiv
                             ___lmul
                          _putrsXLCD
 ---------------------------------------------------------------------------------
 (1) _putrsXLCD                                            1     0      1      63
                                              1 COMRAM     1     0      1
                           _BusyXLCD
                      _WriteDataXLCD
 ---------------------------------------------------------------------------------
 (1) ___lmul                                              12     4      8      94
                                              0 COMRAM    12     4      8
 ---------------------------------------------------------------------------------
 (1) ___lldiv                                             13     5      8     164
                                             12 COMRAM    13     5      8
                             ___lmul (ARG)
 ---------------------------------------------------------------------------------
 (1) _OpenXLCD                                             1     1      0      30
                           _BusyXLCD
                      _DelayFor18TCY
                       _DelayPORXLCD
                          _DelayXLCD
                       _SetDDRamAddr
                       _WriteCmdXLCD
 ---------------------------------------------------------------------------------
 (1) _WriteCmdXLCD                                         1     1      0      15
                                              0 COMRAM     1     1      0
                      _DelayFor18TCY
 ---------------------------------------------------------------------------------
 (1) _SetDDRamAddr                                         1     1      0      15
                                              0 COMRAM     1     1      0
                      _DelayFor18TCY
 ---------------------------------------------------------------------------------
 (2) _DelayXLCD                                            1     1      0       0
                                              0 COMRAM     1     1      0
 ---------------------------------------------------------------------------------
 (2) _DelayPORXLCD                                         1     1      0       0
                                              0 COMRAM     1     1      0
 ---------------------------------------------------------------------------------
 (1) _LCD_PutTemperature                                   7     4      3    2936
                                             58 COMRAM     7     4      3
                            ___lwdiv
                            ___lwmod
                           _putsXLCD
                            _sprintf
 ---------------------------------------------------------------------------------
 (2) _sprintf                                             20    14      6    2410
                                             40 COMRAM    18    12      6
                           _vfprintf
 ---------------------------------------------------------------------------------
 (3) _vfprintf                                             4     1      3    2207
                                             36 COMRAM     4     1      3
                          _vfpfcnvrt
 ---------------------------------------------------------------------------------
 (4) _vfpfcnvrt                                           10     7      3    2076
                                             28 COMRAM     8     5      3
                              _fputc
                 _read_prec_or_width
                               _utoa
 ---------------------------------------------------------------------------------
 (5) _utoa                                                 8     5      3    1305
                                             20 COMRAM     8     5      3
                            ___lwdiv
                            ___lwmod
                                _pad
 ---------------------------------------------------------------------------------
 (6) _pad                                                  7     3      4     747
                                             13 COMRAM     7     3      4
                              _fputc
                              _fputs
 ---------------------------------------------------------------------------------
 (7) _fputs                                                5     3      2     333
                                              8 COMRAM     5     3      2
                              _fputc
 ---------------------------------------------------------------------------------
 (8) _fputc                                                8     5      3     232
                                              0 COMRAM     8     5      3
                              _putch
 ---------------------------------------------------------------------------------
 (9) _putch                                                1     1      0       0
 ---------------------------------------------------------------------------------
 (6) ___lwmod                                              5     1      4     163
                                              0 COMRAM     5     1      4
 ---------------------------------------------------------------------------------
 (6) ___lwdiv                                              7     3      4     166
                                              0 COMRAM     7     3      4
 ---------------------------------------------------------------------------------
 (5) _read_prec_or_width                                   7     5      2     182
                                              0 COMRAM     7     5      2
 ---------------------------------------------------------------------------------
 (2) _putsXLCD                                             1     0      1      61
                                              1 COMRAM     1     0      1
                           _BusyXLCD
                      _WriteDataXLCD
 ---------------------------------------------------------------------------------
 (2) _WriteDataXLCD                                        1     1      0      15
                                              0 COMRAM     1     1      0
                      _DelayFor18TCY
 ---------------------------------------------------------------------------------
 (2) _BusyXLCD                                             0     0      0       0
                      _DelayFor18TCY
 ---------------------------------------------------------------------------------
 (3) _DelayFor18TCY                                        0     0      0       0
 ---------------------------------------------------------------------------------
 (1) _AD_Read                                              4     2      2       0
                                              0 COMRAM     4     2      2
 ---------------------------------------------------------------------------------
 Estimated maximum stack depth 9
 ---------------------------------------------------------------------------------

 Call Graph Graphs:

 _main (ROOT)
   _AD_Read
   _BusyXLCD
     _DelayFor18TCY
   _DelayFor18TCY
   _DelayPORXLCD
   _LCD_PutTemperature
     ___lwdiv
     ___lwmod
     _putsXLCD
       _BusyXLCD
       _WriteDataXLCD
         _DelayFor18TCY
     _sprintf
       _vfprintf
         _vfpfcnvrt
           _fputc
             _putch
           _read_prec_or_width
           _utoa
             ___lwdiv
             ___lwmod
             _pad
               _fputc
               _fputs
                 _fputc
   _OpenXLCD
     _BusyXLCD
     _DelayFor18TCY
     _DelayPORXLCD
     _DelayXLCD
     _SetDDRamAddr
       _DelayFor18TCY
     _WriteCmdXLCD
       _DelayFor18TCY
   _SetDDRamAddr
   _WriteCmdXLCD
   _WriteDataXLCD
   ___lldiv
     ___lmul (ARG)
   ___lmul
   _putrsXLCD
     _BusyXLCD
     _WriteDataXLCD

Address spaces:
Name               Size   Autos  Total    Usage
BIGRAM            2047      0       0      0.0%
BITBANK7           256      0       0      0.0%
BANK7              256      0       0      0.0%
BITBANK6           256      0       0      0.0%
BANK6              256      0       0      0.0%
BITBANK5           256      0       0      0.0%
BANK5              256      0       0      0.0%
BITBANK4           256      0       0      0.0%
BANK4              256      0       0      0.0%
BITBANK3           256      0       0      0.0%
BANK3              256      0       0      0.0%
BITBANK2           256      0       0      0.0%
BANK2              256      0       0      0.0%
BITBANK1           256      0       0      0.0%
BANK1              256      0       0      0.0%
BITBANK0           160      0       0      0.0%
BANK0              160      0      32     20.0%
BITCOMRAM           95      0       0      0.0%
COMRAM              95     84      89     93.7%
BITBIGSFRh          61      0       0      0.0%
BITBIGSFRlh         45      0       0      0.0%
BITBIGSFRlll        35      0       0      0.0%
BITBIGSFRllh        16      0       0      0.0%
STACK                0      0       0      0.0%
DATA                 0      0     121      0.0%


Microchip Technology PIC18 Macro Assembler V3.00 build 20241204225717 
Symbol Table                                                                                   Wed Nov 12 23:25:29 2025

                             l50 1266                               l53 1256                               l47 126E  
                             l80 11B0                               l83 1052                               l77 1190  
                            l123 0B82                              l126 1246                              l135 109A  
                            l144 1116                              l162 1230                              l156 11D2  
                            l159 1212                              l192 0D74                              l176 0F80  
                            l177 0F90                              l199 0D84                              l663 0F26  
                            l911 0CE0                              l656 0F1E                              l673 0FF4  
                            l666 0FEC                              l922 1270                              l843 1186  
                            l861 0E5A                              l919 1152                              l864 0E98  
                            l882 0E28                              l866 0EB2                              l874 0C36  
                            l892 0AB6                              l878 0E20                              l899 10D8  
                            u300 0B62                              u301 0B5E                              u310 0B7C  
                            u311 0B78                              u500 1152                              u501 114E  
                            u510 0ECE                              u270 0B10                              u511 0ECA  
                            u271 0B0C                              u520 0EEC                              u600 0EA6  
                            u280 0B2A                              u521 0EE8                              u601 0EA2  
                            u281 0B26                              u530 0F08                              u610 0BFE  
                            u290 0B44                              u531 0F04                              u611 0BFA  
                            u291 0B40                              u700 10F2                              u540 0FA4  
                            u460 0C48                              u620 0C10                              u701 10EE  
                            u541 0FA0                              u461 0C44                              u621 0C0C  
                            u710 1116                              u550 0FC2                              u470 0C58  
                            u630 0C20                              u711 1112                              u551 0FBE  
                            u471 0C54                              u631 0C1C                              u640 0DB0  
                            u560 0FD8                              u480 0C7E                              u720 106C  
                            u800 0850                              u641 0DAC                              u561 0FD4  
                            u481 0C7A                              u721 1068                              u801 084C  
                            u650 0E20                              u490 0CB0                              u570 0E38  
                            u730 109A                              u810 08D2                              u651 0E1C  
                            u491 0CAC                              u571 0E34                              u731 1096  
                            u811 08CE                              u740 119E                              u580 0E52  
                            u660 09CC                              u820 0914                              u741 119A  
                            u581 0E4E                              u661 09C8                              u821 0910  
                            u590 0E98                              u670 0A06                              u750 0F46  
                            u830 0932                              u591 0E94                              u671 0A02  
                            u751 0F42                              u831 092E                              u680 0A36  
                            u760 0F80                              u840 0982                              u681 0A32  
                            u761 0F7C                              u841 097E                              u690 10D0  
                            u770 0D08                              u850 09A2                              u907 118A  
                            u691 10CC                              u771 0D04                              u851 099E  
                            u780 0D2A                              u781 0D26                              u790 0D52  
                            u791 0D4E                              u867 0958                              u877 124E  
                            u887 125E                              u897 126A                              _pad 0E2A  
                            wreg 0FE8                  __end_of_AD_Read 11B2                             l1100 121C  
                           l1110 122A                             l1102 121E                             l1040 1268  
                           l1112 122C                             l1104 1220                             l1200 0AC8  
                           l1114 122E                             l1106 1224                             l1130 1248  
                           l1210 0AD8                             l1202 0ACC                             l1108 1226  
                           l1140 1200                             l1132 11F6                             l1220 0AEE  
                           l1212 0ADA                             l1204 0ACE                             l1150 1210  
                           l1142 1204                             l1134 11F8                             l1230 0AFC  
                           l1222 0AF2                             l1214 0ADE                             l1206 0AD2  
                           l1128 1258                             l1160 11BE                             l1144 1206  
                           l1136 11FC                             l1240 0B44                             l1232 0B10  
                           l1224 0AF4                             l1216 0AE2                             l1208 0AD4  
                           l1090 1242                             l1082 1232                             l1170 11CC  
                           l1162 11C0                             l1154 11B4                             l1146 120A  
                           l1138 11FE                             l1242 0B4E                             l1234 0B16  
                           l1226 0AF8                             l1218 0AE8                             l1092 1244  
                           l1084 1236                             l1500 0E38                             l1172 11D0  
                           l1164 11C4                             l1156 11B6                             l1148 120C  
                           l1244 0B62                             l1236 0B2A                             l1228 0AFA  
                           l1086 123A                             l1510 0E7A                             l1502 0E44  
                           l1166 11C6                             l1158 11BC                             l1246 0B68  
                           l1238 0B30                             l1088 1240                             l1096 1216  
                           l1440 0C48                             l1512 0EA6                             l1504 0E52  
                           l1520 0BA0                             l1600 10D0                             l1168 11CA  
                           l1248 0B7C                             l1098 1218                             l1442 0C58  
                           l1506 0E66                             l1522 0BA6                             l1530 0BEC  
                           l1514 0B84                             l1610 116C                             l1620 10F2  
                           l1540 0D86                             l1460 0EB4                             l1444 0C62  
                           l1452 1118                             l1508 0E76                             l1532 0BFE  
                           l1524 0BC8                             l1516 0B88                             l1612 117C  
                           l1604 1154                             l1700 0834                             l1622 10FE  
                           l1550 0DF2                             l1542 0D8E                             l1470 0EEC  
                           l1462 0EBC                             l1446 0C7E                             l1438 0C38  
                           l1454 1124                             l1534 0C10                             l1526 0BCA  
                           l1518 0B98                             l1606 115C                             l1198 0AB8  
                           l1630 106C                             l1710 0862                             l1702 0836  
                           l1640 119E                             l1624 1100                             l1616 10DA  
                           l1544 0DB0                             l1552 0DFA                             l1480 0F18  
                           l1472 0EF2                             l1464 0ECE                             l1448 0CB0  
                           l1456 1132                             l1536 0C20                             l1528 0BD0  
                           l1560 09E0                             l1608 1164                             l1632 107C  
                           l1720 08D8                             l1712 0866                             l1704 083C  
                           l1618 10DE                             l1546 0DB8                             l1474 0F08  
                           l1466 0ED6                             l1490 0FC2                             l1482 0F92  
                           l1458 1136                             l1570 0A1A                             l1562 09E4  
                           l1554 09AA                             l1650 0F28                             l1634 107E  
                           l1626 1054                             l1730 0914                             l1722 08E8  
                           l1714 0872                             l1706 0850                             l1636 1188  
                           l1548 0DD4                             l1476 0F10                             l1468 0EDE  
                           l1492 0FD8                             l1484 0FA4                             l1572 0A36  
                           l1564 09F8                             l1556 09CC                             l1644 0FF6  
                           l1660 0CE2                             l1652 0F38                             l1628 1058  
                           l1740 0942                             l1732 091C                             l1724 08F0  
                           l1716 08BE                             l1708 085A                             l1638 118E  
                           l1478 0F12                             l1494 0FE0                             l1486 0FAC  
                           l1582 0A70                             l1574 0A4E                             l1566 0A06  
                           l1558 09D4                             l1646 102E                             l1670 0D2A  
                           l1662 0CF2                             l1654 0F46                             l1734 0932  
                           l1726 08F6                             l1718 08D2                             l1496 0FE6  
                           l1488 0FB4                             l1576 0A5C                             l1584 0A88  
                           l1568 0A10                             l1648 104A                             l1680 0D6E  
                           l1672 0D34                             l1664 0D08                             l1656 0F56  
                           l1752 0952                             l1736 0936                             l1728 08FE  
                           l1498 0E2A                             l1594 109C                             l1674 0D52  
                           l1666 0D10                             l1658 0F60                             l1754 0962  
                           l1746 094A                             l1738 093C                             l1690 082A  
                           l1682 0818                             l1588 0A94                             l1596 10A4  
                           l1676 0D62                             l1668 0D1C                             l1756 0982  
                           l1692 082C                             l1684 081A                             l1598 10B4  
                           l1678 0D64                             l1758 0986                             l1694 082E  
                           l1686 0826                             l1696 0830                             l1688 0828  
                           l1698 0832                             ?_pad 000E                             STR_1 0801  
                           STR_2 080C                             STR_3 0815                             STR_4 080E  
                           _dbuf 0060                             _main 0818                             _prec 0057  
                           pad@i 0013                             pad@p 0010                             fsr1h 0FE2  
                           fsr2h 0FDA                             indf2 0FDF                             fsr1l 0FE1  
                           fsr2l 0FD9                             _utoa 0B84                             prodh 0FF4  
                           prodl 0FF3                             start 7FFC                     main@ad_value 004D  
                   ___param_bank 0000                            ??_pad 0012                     _WriteCmdXLCD 11F4  
                  ?_SetDDRamAddr 0001                            ?_main 0001       __end_of_LCD_PutTemperature 1054  
                __end_of___lldiv 0D86                            ?_utoa 0015                  __end_of___lwdiv 0F28  
                __end_of___lwmod 0FF6                     vfpfcnvrt@fmt 001E                            _PORTD 0F83  
                          _TRISD 0F95              ___lmul@multiplicand 0005                            _flags 0059  
            read_prec_or_width@c 0005              read_prec_or_width@n 0006                            _fputc 0C38  
                          _fputs 1118                            pad@fp 000E                            _width 0055  
                          _putch 1270                            main@i 004F                            main@j 0051  
                          tablat 0FF5                            utoa@d 0016                            utoa@i 001B  
                          utoa@p 001A                            utoa@w 0018                            status 0FD8  
                __end_of_sprintf 1188                  __initialization 11D4                     __end_of_main 09AA  
                   __end_of_utoa 0C38                 __end_of_BusyXLCD 1248                   ??_SetDDRamAddr 0001  
               __end_of_OpenXLCD 0B84                           ??_main 0042                        ??_AD_Read 0003  
                         ??_utoa 0018                    __activetblptr 0002                    _WriteDataXLCD 1214  
     __end_of_read_prec_or_width 0E2A                           _ADCON0 0FC2                           _ADCON1 0FC1  
                         _ADCON2 0FC0                           ?_fputc 0001                           ?_fputs 0009  
                         _ADRESH 0FC4                           _ADRESL 0FC3                           ?_putch 0001  
                   _DelayPORXLCD 1258                     vfprintf@cfmt 0028                           ___lmul 0F28  
                      ??___lldiv 0015                        ??___lwdiv 0005                        ??___lwmod 0005  
           read_prec_or_width@ap 0002                           clear_0 11DA                           isa$std 0001  
                         pad@buf 000F                    main@temp_mili 0053                   ?_WriteDataXLCD 0001  
                         fputc@c 0001                           fputs@c 000B                           fputs@i 000C  
                         fputs@s 0009                     __mediumconst 0800                           tblptrh 0FF7  
                         tblptrl 0FF6                           tblptru 0FF8                           putch@c 0001  
               __end_of_putsXLCD 1118                 __end_of_vfprintf 10DA                           utoa@fp 0015  
                      ??_sprintf 002F                __end_of_DelayXLCD 1258                       __accesstop 0060  
        __end_of__initialization 11EA                    ___rparam_used 0001                   __pcstackCOMRAM 0001  
                  __end_of_fputc 0CE2                    __end_of_fputs 1154                    __end_of_putch 1272  
                        ??_fputc 0004                          ??_fputs 000B                          ??_putch 0001  
                     __pbssBANK0 0060                        ?_BusyXLCD 0001                  WriteCmdXLCD@cmd 0001  
           __end_of_SetDDRamAddr 11D4                        ?_OpenXLCD 0001                WriteDataXLCD@data 0001  
                        ?___lmul 0001                  ??_WriteDataXLCD 0001                   ___lmul@product 0009  
                        _AD_Read 1188                       ??_BusyXLCD 0001               _LCD_PutTemperature 0FF6  
                     ??_OpenXLCD 0002                          __Hparam 0000              ?_LCD_PutTemperature 003B  
                        __Lparam 0000                    _DelayFor18TCY 1268                          ___lldiv 0CE2  
                      ?_putsXLCD 0002                          ___lwdiv 0EB4                          ___lwmod 0F92  
                      ?_vfprintf 0025                     __psmallconst 0800                          __pcinit 11D4  
                putrsXLCD@buffer 0002                          __ramtop 0800                          __ptext0 0818  
                        __ptext1 1054                          __ptext2 0F28                          __ptext3 0CE2  
                        __ptext4 0AB8                          __ptext5 11F4                          __ptext6 11B2  
                        __ptext7 1248                          __ptext8 1258                          __ptext9 0FF6  
          read_prec_or_width@fmt 0001             ??_LCD_PutTemperature 003E                          _sprintf 1154  
           end_of_initialization 11EA                          fputc@fp 0003                    __Lmediumconst 0000  
                        fputs@fp 000A               _read_prec_or_width 0D86                  ___lldiv@divisor 0011  
                ___lldiv@counter 0019                __end_of_vfpfcnvrt 0AB8                   ?_DelayFor18TCY 0001  
                        postdec2 0FDD              ?_read_prec_or_width 0001                          postinc0 0FEE  
                        postinc1 0FE6                          postinc2 0FDE                 vfpfcnvrt@convarg 0020  
                     ??_putsXLCD 0003                       ??_vfprintf 0028                __end_of_putrsXLCD 109C  
                      _TRISAbits 0F92                        _TRISCbits 0F94                        _TRISEbits 0F96  
           ??_read_prec_or_width 0003                       main@buffer 0043                        _DelayXLCD 1248  
                 __end_of___lmul 0F92                      vfpfcnvrt@ap 001F                      vfpfcnvrt@cp 0024  
                    vfpfcnvrt@fp 001D                     _SetDDRamAddr 11B2               SetDDRamAddr@DDaddr 0001  
            start_initialization 11D4                      __end_of_pad 0EB4                       ?_DelayXLCD 0001  
                ??_DelayFor18TCY 0001                      vfprintf@fmt 0026                         ??___lmul 0009  
                  ?_WriteCmdXLCD 0001       LCD_PutTemperature@num_mili 003B                         ?_AD_Read 0001  
                    __pbssCOMRAM 0055                   putsXLCD@buffer 0002                 ___lwdiv@dividend 0001  
                 ??_WriteCmdXLCD 0001                         ?___lldiv 000D                         ?___lwdiv 0001  
                       ?___lwmod 0001            __end_of_WriteDataXLCD 1232                      __smallconst 0800  
               ___lwdiv@quotient 0005                         ?_sprintf 0029                         _LATCbits 0F8B  
                       _LATEbits 0F8D                      ??_DelayXLCD 0001                    ?_DelayPORXLCD 0001  
                OpenXLCD@lcdtype 0001                        _vfpfcnvrt 09AA                       _ADCON0bits 0FC2  
                      _putrsXLCD 1054                ___lmul@multiplier 0001                         _BusyXLCD 1232  
                 ??_DelayPORXLCD 0001                         _OpenXLCD 0AB8                         __Hrparam 0000  
                     vfprintf@ap 0027                         __Lrparam 0000                       vfprintf@fp 0025  
LCD_PutTemperature@parte_decimal 0040                       ?_vfpfcnvrt 001D  LCD_PutTemperature@parte_inteira 003E  
                     sprintf@fmt 002A                       ?_putrsXLCD 0002                  ___lwdiv@divisor 0003  
                ___lwdiv@counter 0007                         __ptext10 1154                         __ptext11 109C  
                       __ptext20 0D86                         __ptext12 09AA                         __ptext21 10DA  
                       __ptext13 0B84                         __ptext22 1214                         __ptext14 0E2A  
                       __ptext23 1232                         __ptext15 1118                         __ptext24 1268  
                       __ptext16 0C38                         __ptext25 1188                         __ptext17 1270  
                       __ptext18 0F92                         __ptext19 0EB4             __end_of_WriteCmdXLCD 1214  
       LCD_PutTemperature@buffer 003D                         isa$xinst 0000                         _putsXLCD 10DA  
                       _vfprintf 109C                        sprintf@ap 002F                 ___lwmod@dividend 0001  
               ___lldiv@dividend 000D            __end_of_DelayFor18TCY 1270                      ??_vfpfcnvrt 0020  
                       sprintf@f 0030                         sprintf@s 0029             __end_of_DelayPORXLCD 1268  
                    ??_putrsXLCD 0003                 ___lldiv@quotient 0015                  ___lwmod@divisor 0003  
                ___lwmod@counter 0005  
