MPASM 5.83                          MAIN.ASM   10-25-2025  16:25:44         PAGE  1


LOC  OBJECT CODE     LINE SOURCE TEXT
  VALUE

                      00001 ;*******************************************************************************
                      00002 ;                                                                              *
                      00003 ;    Filename: main                                                            *
                      00004 ;    Date: 23/09/2025                                                          *
                      00005 ;    File Version: 0.1                                                         *
                      00006 ;    Author: Samuel e Augusto                                                  *
                      00007 ;                                                                              *
                      00008 ;*******************************************************************************
                      00009 ;                                                                              *
                      00010 ;    Known Issues: Sem debounce do botao M
                      00011 ;                                                                              *
                      00012 ;*******************************************************************************
                      00013 ;                                                                              *
                      00014 ;    Revision History:                                                         *
                      00015 ;    23/09/2025 - Criaçăo                                                      *
                      00016 ;    24/09/2025 - Estados adicionados e configurados                           *
                      00017 ;    25/09/2025 - Estados alterados e simplificaçăo                            *
                      00018 ;    28/09/2025 - Controle motor, tempo concertado e add+ um led de status     *                       *
                      00019 ;                                                                              *
                      00020 ;*******************************************************************************
                      00021 ;*******************************************************************************
                      00022 ; PIC18F4550 Configuration Bit Settings
                      00023 ;*******************************************************************************
                      00024 #include "p18f4550.inc"
                      00001         LIST
                      00002 
                      00003 ;==========================================================================
                      00004 ; Build date : Jan 21 2019
                      00005 ;  MPASM PIC18F4550 processor include
                      00006 ; 
                      00007 ;  (c) Copyright 1999-2019 Microchip Technology, All rights reserved
                      00008 ;==========================================================================
                      00009 
                      01765         LIST
                      00025 
                      00026 ; CONFIG1L
                      00027   CONFIG  PLLDIV = 1            ; PLL Prescaler Selection bits (No prescale (4 MHz oscillator input driv
                            es PLL directly))
                      00028   CONFIG  CPUDIV = OSC1_PLL2    ; System Clock Postscaler Selection bits ([Primary Oscillator Src: /1][9
                            6 MHz PLL Src: /2])
                      00029   CONFIG  USBDIV = 1            ; USB Clock Selection bit (used in Full-Speed USB mode only; UCFG:FSEN =
                             1) (USB clock source comes directly from the primary oscillator block with no postscale)
                      00030 
                      00031 ; CONFIG1H
                      00032   CONFIG  FOSC = INTOSCIO_EC    ; Oscillator Selection bits (XT oscillator (XT))
                      00033   CONFIG  FCMEN = OFF           ; Fail-Safe Clock Monitor Enable bit (Fail-Safe Clock Monitor disabled)
                      00034   CONFIG  IESO = OFF            ; Internal/External Oscillator Switchover bit (Oscillator Switchover mod
                            e disabled)
                      00035 
                      00036 ; CONFIG2L
                      00037   CONFIG  PWRT = ON             ; Power-up Timer Enable bit (PWRT enabled)
                      00038   CONFIG  BOR = OFF             ; Brown-out Reset Enable bits (Brown-out Reset disabled in hardware and 
                            software)
MPASM 5.83                          MAIN.ASM   10-25-2025  16:25:44         PAGE  2


LOC  OBJECT CODE     LINE SOURCE TEXT
  VALUE

                      00039   CONFIG  BORV = 0              ; Brown-out Reset Voltage bits (Maximum setting 4.59V)
                      00040   CONFIG  VREGEN = OFF          ; USB Voltage Regulator Enable bit (USB voltage regulator disabled)
                      00041 
                      00042 ; CONFIG2H
                      00043   CONFIG  WDT = OFF             ; Watchdog Timer Enable bit (WDT disabled (control is placed on the SWDT
                            EN bit))
                      00044   CONFIG  WDTPS = 1             ; Watchdog Timer Postscale Select bits (1:1)
                      00045 
                      00046 ; CONFIG3H
                      00047   CONFIG  CCP2MX = OFF          ; CCP2 MUX bit (CCP2 input/output is multiplexed with RB3)
                      00048   CONFIG  PBADEN = OFF          ; PORTB A/D Enable bit (PORTB<4:0> pins are configured as digital I/O on
                             Reset)
                      00049   CONFIG  LPT1OSC = OFF         ; Low-Power Timer 1 Oscillator Enable bit (Timer1 configured for higher 
                            power operation)
                      00050   CONFIG  MCLRE = OFF           ; MCLR Pin Enable bit (RE3 input pin enabled; MCLR pin disabled)
                      00051 
                      00052 ; CONFIG4L
                      00053   CONFIG  STVREN = OFF          ; Stack Full/Underflow Reset Enable bit (Stack full/underflow will not c
                            ause Reset)
                      00054   CONFIG  LVP = OFF             ; Single-Supply ICSP Enable bit (Single-Supply ICSP disabled)
                      00055   CONFIG  ICPRT = OFF           ; Dedicated In-Circuit Debug/Programming Port (ICPORT) Enable bit (ICPOR
                            T disabled)
                      00056   CONFIG  XINST = OFF           ; Extended Instruction Set Enable bit (Instruction set extension and Ind
                            exed Addressing mode disabled (Legacy mode))
                      00057 
                      00058 ; CONFIG5L
                      00059   CONFIG  CP0 = ON              ; Code Protection bit (Block 0 (000800-001FFFh) is code-protected)
                      00060   CONFIG  CP1 = ON              ; Code Protection bit (Block 1 (002000-003FFFh) is code-protected)
                      00061   CONFIG  CP2 = ON              ; Code Protection bit (Block 2 (004000-005FFFh) is code-protected)
                      00062   CONFIG  CP3 = ON              ; Code Protection bit (Block 3 (006000-007FFFh) is code-protected)
                      00063 
                      00064 ; CONFIG5H
                      00065   CONFIG  CPB = ON              ; Boot Block Code Protection bit (Boot block (000000-0007FFh) is code-pr
                            otected)
                      00066   CONFIG  CPD = ON              ; Data EEPROM Code Protection bit (Data EEPROM is code-protected)
                      00067 
                      00068 ; CONFIG6L
                      00069   CONFIG  WRT0 = ON             ; Write Protection bit (Block 0 (000800-001FFFh) is write-protected)
                      00070   CONFIG  WRT1 = ON             ; Write Protection bit (Block 1 (002000-003FFFh) is write-protected)
                      00071   CONFIG  WRT2 = ON             ; Write Protection bit (Block 2 (004000-005FFFh) is write-protected)
                      00072   CONFIG  WRT3 = ON             ; Write Protection bit (Block 3 (006000-007FFFh) is write-protected)
                      00073 
                      00074 ; CONFIG6H
                      00075   CONFIG  WRTC = ON             ; Configuration Register Write Protection bit (Configuration registers (
                            300000-3000FFh) are write-protected)
                      00076   CONFIG  WRTB = ON             ; Boot Block Write Protection bit (Boot block (000000-0007FFh) is write-
                            protected)
                      00077   CONFIG  WRTD = ON             ; Data EEPROM Write Protection bit (Data EEPROM is write-protected)
                      00078 
                      00079 ; CONFIG7L
                      00080   CONFIG  EBTR0 = ON            ; Table Read Protection bit (Block 0 (000800-001FFFh) is protected from 
                            table reads executed in other blocks)
                      00081   CONFIG  EBTR1 = ON            ; Table Read Protection bit (Block 1 (002000-003FFFh) is protected from 
MPASM 5.83                          MAIN.ASM   10-25-2025  16:25:44         PAGE  3


LOC  OBJECT CODE     LINE SOURCE TEXT
  VALUE

                            table reads executed in other blocks)
                      00082   CONFIG  EBTR2 = ON            ; Table Read Protection bit (Block 2 (004000-005FFFh) is protected from 
                            table reads executed in other blocks)
                      00083   CONFIG  EBTR3 = ON            ; Table Read Protection bit (Block 3 (006000-007FFFh) is protected from 
                            table reads executed in other blocks)
                      00084 
                      00085 ; CONFIG7H
                      00086   CONFIG  EBTRB = ON            ; Boot Block Table Read Protection bit (Boot block (000000-0007FFh) is p
                            rotected from table reads executed in other blocks)
                      00087 
                      00088 ;*******************************************************************************
                      00089 ; Reset Vector
                      00090 ;*******************************************************************************
                      00091 
                      00092 RES_VECT  CODE    0x0000            ; processor reset vector
000000 EF?? F???      00093     GOTO    MAIN                    ; go to beginning of program
                      00094 
                      00095 ;*******************************************************************************
                      00096 ; Interruption routines
                      00097 ;*******************************************************************************
                      00098 
                      00099 ISRHV     CODE    0x0008
000008 EF?? F???      00100     GOTO    HIGH_ISR
                      00101 ISRLV     CODE    0x0018
000018 EF?? F???      00102     GOTO    LOW_ISR
                      00103 
                      00104 ISRH      CODE                     
                      00105 
000000                00106 HIGH_ISR
                      00107     ; salvar contexto (WREG, STATUS, BSR)
000000 6E22           00108     MOVWF   SAVED_W
000002 CFD8 F023      00109     MOVFF   STATUS, SAVED_STATUS
000006 CFE0 F024      00110     MOVFF   BSR, SAVED_BSR
                      00111 
                      00112     ; trata Timer1
00000A A09E           00113     BTFSS   PIR1, TMR1IF
00000C EF?? F???      00114     GOTO    _HIGH_ISR_DONE
                      00115 
000010 2A21           00116     INCF    TICKS, F           ; conta estouros
000012 909E           00117     BCF     PIR1, TMR1IF       ; limpa flag
                      00118 
000014                00119 _HIGH_ISR_DONE
                      00120     ; restaurar contexto
000014 C024 FFE0      00121     MOVFF   SAVED_BSR, BSR
000018 C023 FFD8      00122     MOVFF   SAVED_STATUS, STATUS
00001C 5022           00123     MOVF    SAVED_W, W
00001E 0011           00124     RETFIE FAST
                      00125 
                      00126 ISRL      CODE                     
                      00127     
000000                00128 LOW_ISR
                      00129       ; Nenhuma interrupçao de baixa prioridade implementada
000000 0010           00130     RETFIE
MPASM 5.83                          MAIN.ASM   10-25-2025  16:25:44         PAGE  4


LOC  OBJECT CODE     LINE SOURCE TEXT
  VALUE

                      00131 
                      00132 ;*******************************************************************************
                      00133 ; MAIN PROGRAM
                      00134 ;*******************************************************************************
Warning[205]: Found directive in column 1. (CBLOCK)
                      00135 CBLOCK 0x20
  00000020            00136     STATE           ; Variavel de estado
  00000021            00137     TICKS           ; Variavel de contagem
  00000022            00138     SAVED_W         ; temporário para salvar WREG na ISR
  00000023            00139     SAVED_STATUS    ; temporário para salvar STATUS na ISR
  00000024            00140     SAVED_BSR       ; temporário para salvar BSR na ISR
Warning[205]: Found directive in column 1. (ENDC)
                      00141 ENDC
                      00142 
                      00143 ;Define dos pinos
                      00144 #define M_BUTTON PORTB, 0
                      00145 #define P_SENSOR PORTC, 2
                      00146 #define A_SENSOR PORTC, 0
                      00147 #define B_SENSOR PORTC, 1
                      00148 #define GREEN_LED LATA, 0
                      00149 #define ORANGE_LED LATA, 1
                      00150 #define YELLOW_LED LATA, 2
                      00151 #define RED_LED LATA, 3
                      00152 #define BLUE_LED LATA, 4
                      00153 #define GATE LATE, 0
                      00154  
                      00155 ;Define dos estados
  00000000            00156 IDLE EQU 0
  00000001            00157 START EQU 1
  00000002            00158 RIGHT EQU 2
  00000003            00159 OPEN EQU 3
  00000004            00160 TIME EQU 4
  00000005            00161 FINISH EQU 5
                      00162 
                      00163 MAIN_PROG CODE                      
                      00164 
000000                00165 MAIN
                      00166     ; Coloca INTOSC em 8 MHz
000000 0E72           00167     MOVLW   0x72        ; 0111 0010 = 8 MHz INTOSC
000002 6ED3           00168     MOVWF   OSCCON
                      00169     ; Entradas analógicas desabilitadas (Todas Digitais)
000004 0E0F           00170     MOVLW 0x0F
000006 6EC1           00171     MOVWF ADCON1
                      00172 
                      00173     ; Configura entradas e saidas
000008 8093           00174     BSF TRISB, 0 ; Botăo
                      00175     ;Sensores
00000A 8094           00176     BSF TRISC, 0
00000C 8294           00177     BSF TRISC, 1
00000E 8494           00178     BSF TRISC, 2
                      00179     ;Comporta
000010 9096           00180     BCF TRISE, 0
                      00181     ;LEDS
MPASM 5.83                          MAIN.ASM   10-25-2025  16:25:44         PAGE  5


LOC  OBJECT CODE     LINE SOURCE TEXT
  VALUE

000012 9092           00182     BCF TRISA, 0
000014 9292           00183     BCF TRISA, 1
000016 9492           00184     BCF TRISA, 2
000018 9692           00185     BCF TRISA, 3
00001A 9892           00186     BCF TRISA, 4
                      00187     ; Bobinas Motor
00001C 9095           00188     BCF TRISD, 0
00001E 9295           00189     BCF TRISD, 1
000020 9495           00190     BCF TRISD, 2
000022 9695           00191     BCF TRISD, 3
                      00192     
                      00193     ; Inicializa saídas
000024 9089           00194     BCF LATA,0
000026 9289           00195     BCF LATA,1
000028 9489           00196     BCF LATA,2
00002A 9689           00197     BCF LATA,3
00002C 908D           00198     BCF LATE,0
                      00199     
                      00200     ; Inicializacao da máquina de estados
00002E 0E00           00201     MOVLW IDLE
000030 6E20           00202     MOVWF STATE
                      00203     
                      00204     ;Inicializaçăo do timer1
000032 8ED0           00205     BSF RCON, IPEN      ; habilita prioridades
000034 6ACD           00206     CLRF T1CON
                      00207     ; prescaler 1:8 -> T1CKPS1:T1CKPS0 = 11
000036 88CD           00208     BSF T1CON, T1CKPS0
000038 8ACD           00209     BSF T1CON, T1CKPS1
                      00210     ; zera contador de TMR1 para transiçőes previsíveis
00003A 6ACE           00211     CLRF TMR1L
00003C 6ACF           00212     CLRF TMR1H
00003E 80CD           00213     BSF T1CON, TMR1ON   ; liga Timer1
                      00214 
000040 6A9E           00215     CLRF PIR1
000042 809D           00216     BSF PIE1, TMR1IE    ; habilita interrupcao Timer1
000044 809F           00217     BSF IPR1, TMR1IP    ; coloca Timer1 em alta prioridade
                      00218     
                      00219     ;Interrupçőes globais
000046 8CF2           00220     BSF INTCON, PEIE
000048 8EF2           00221     BSF INTCON, GIEH    ; habilita interrupcoes high
00004A 8CF2           00222     BSF INTCON, GIEL    ; habilita interrupcoes low (nenhuma implementada)
                      00223 
Warning[207]: Found label after column 1. (MAIN_LOOP)
00004C                00224   MAIN_LOOP
                      00225     ; Troca simples de estados
00004C 5020           00226     MOVF STATE, W
00004E 0A00           00227     XORLW IDLE
000050 B4D8           00228     BTFSC STATUS, Z
000052 EF?? F???      00229     GOTO IDLE_ROUTINE
                      00230 
000056 5020           00231     MOVF STATE, W
000058 0A01           00232     XORLW START
00005A B4D8           00233     BTFSC STATUS, Z
MPASM 5.83                          MAIN.ASM   10-25-2025  16:25:44         PAGE  6


LOC  OBJECT CODE     LINE SOURCE TEXT
  VALUE

00005C EF?? F???      00234     GOTO START_ROUTINE
                      00235 
000060 5020           00236     MOVF STATE, W
000062 0A02           00237     XORLW RIGHT
000064 B4D8           00238     BTFSC STATUS, Z
000066 EF?? F???      00239     GOTO RIGHT_ROUTINE
                      00240 
00006A 5020           00241     MOVF STATE, W
00006C 0A03           00242     XORLW OPEN
00006E B4D8           00243     BTFSC STATUS, Z
000070 EF?? F???      00244     GOTO OPEN_ROUTINE
                      00245 
000074 5020           00246     MOVF STATE, W
000076 0A04           00247     XORLW TIME
000078 B4D8           00248     BTFSC STATUS, Z
00007A EF?? F???      00249     GOTO TIME_ROUTINE
                      00250 
00007E 5020           00251     MOVF STATE, W
000080 0A05           00252     XORLW FINISH
000082 B4D8           00253     BTFSC STATUS, Z
000084 EF?? F???      00254     GOTO FINISH_ROUTINE
                      00255 
000088 EF?? F???      00256     GOTO MAIN_LOOP
                      00257 
                      00258 ;-------------------------------------------------------
                      00259 ; Máquina de estados 
                      00260 ;-------------------------------------------------------
                      00261     
00008C                00262 IDLE_ROUTINE ; Carro andando até sensor A = 1
                      00263     ; LEDs
00008C 9289           00264     BCF ORANGE_LED
00008E 9489           00265     BCF YELLOW_LED
000090 9889           00266     BCF BLUE_LED
000092 9689           00267     BCF RED_LED
000094 8089           00268     BSF GREEN_LED
                      00269     
000096 908D           00270     BCF GATE ; Comporta fechada
                      00271     
000098 B082           00272     BTFSC   A_SENSOR
00009A EF?? F???      00273     GOTO    IDLE_REACHED
00009E EF?? F???      00274     GOTO    MAIN_LOOP
                      00275 
0000A2                00276 IDLE_REACHED
0000A2 0E01           00277     MOVLW START
0000A4 6E20           00278     MOVWF STATE
0000A6 EF?? F???      00279     GOTO MAIN_LOOP
                      00280 
0000AA                00281 START_ROUTINE ; Espera pressionar o botăo M
                      00282     ; LEDs
0000AA 9089           00283     BCF GREEN_LED
0000AC 9489           00284     BCF YELLOW_LED
0000AE 9889           00285     BCF BLUE_LED
0000B0 9689           00286     BCF RED_LED
MPASM 5.83                          MAIN.ASM   10-25-2025  16:25:44         PAGE  7


LOC  OBJECT CODE     LINE SOURCE TEXT
  VALUE

0000B2 8289           00287     BSF ORANGE_LED
                      00288 
0000B4 908D           00289     BCF GATE  ; Comporta fechada
                      00290 
                      00291     ; botăo M = 0 para começar
0000B6 B081           00292     BTFSC M_BUTTON
0000B8 EF?? F???      00293     GOTO MAIN_LOOP        ; se M = 1 continua esperando
                      00294 
                      00295     ; Botăo pressionado -> entra em RIGHT
0000BC 0E02           00296     MOVLW RIGHT
0000BE 6E20           00297     MOVWF STATE
0000C0 EF?? F???      00298     GOTO MAIN_LOOP
                      00299 
0000C4                00300 RIGHT_ROUTINE ; Espera sensor B = 1
                      00301     ; LEDs
0000C4 9089           00302     BCF GREEN_LED
0000C6 9289           00303     BCF ORANGE_LED
0000C8 9889           00304     BCF BLUE_LED
0000CA 9689           00305     BCF RED_LED
0000CC 8489           00306     BSF YELLOW_LED
                      00307 
0000CE 908D           00308     BCF GATE ; Comporta fechada
0000D0 EC?? F???      00309     CALL ROTATE_RIGHT
                      00310     
                      00311     ; B = 1 -> transita para OPEN
0000D4 A282           00312     BTFSS B_SENSOR
0000D6 EF?? F???      00313     GOTO MAIN_LOOP        ; B = 0 -> permanece em RIGHT
0000DA 0E03           00314     MOVLW OPEN
0000DC 6E20           00315     MOVWF STATE
0000DE EF?? F???      00316     GOTO MAIN_LOOP
                      00317 
0000E2                00318 OPEN_ROUTINE ; Abre a comporta e espera sensor P = 1
                      00319     ; LEDs
0000E2 9089           00320     BCF GREEN_LED
0000E4 9289           00321     BCF ORANGE_LED
0000E6 9889           00322     BCF BLUE_LED
0000E8 9689           00323     BCF RED_LED
0000EA 8489           00324     BSF YELLOW_LED
                      00325 
                      00326     ; Abre a comporta (uma vez)
0000EC A08D           00327     BTFSS GATE
0000EE EC?? F???      00328     CALL Delay_5s
0000F2 808D           00329     BSF GATE
                      00330 
                      00331     ; Espera P=1
0000F4 A482           00332     BTFSS P_SENSOR
0000F6 EF?? F???      00333     GOTO MAIN_LOOP
                      00334 
                      00335     ; P=1 detectado -> fecha e vai para TIME
0000FA 0E04           00336     MOVLW TIME
0000FC 6E20           00337     MOVWF STATE
0000FE EF?? F???      00338     GOTO MAIN_LOOP
                      00339 
MPASM 5.83                          MAIN.ASM   10-25-2025  16:25:44         PAGE  8


LOC  OBJECT CODE     LINE SOURCE TEXT
  VALUE

                      00340 
000102                00341 TIME_ROUTINE ; Espera 5s
                      00342     ; LEDs
000102 9089           00343     BCF GREEN_LED
000104 9289           00344     BCF ORANGE_LED
000106 9489           00345     BCF YELLOW_LED
000108 9689           00346     BCF RED_LED
00010A 8889           00347     BSF BLUE_LED
                      00348     
00010C B08D           00349     BTFSC GATE
00010E EC?? F???      00350     CALL Delay_5s ; delay de 5s
000112 908D           00351     BCF GATE ; Comporta fechada
000114 0E05           00352     MOVLW FINISH
000116 6E20           00353     MOVWF STATE
000118 EF?? F???      00354     GOTO MAIN_LOOP
                      00355 
00011C                00356 FINISH_ROUTINE ; Espera B = 0
                      00357     ; LEDs
00011C 9089           00358     BCF GREEN_LED
00011E 9289           00359     BCF ORANGE_LED
000120 9489           00360     BCF YELLOW_LED
000122 9889           00361     BCF BLUE_LED
000124 8689           00362     BSF RED_LED
                      00363 
000126 908D           00364     BCF GATE ; Comporta fechada
000128 EC?? F???      00365     CALL ROTATE_LEFT
                      00366 
                      00367     ; Aguarda sensor B = 0 / A = 1 para completar ciclo
00012C B282           00368     BTFSC B_SENSOR 
00012E EF?? F???      00369     GOTO MAIN_LOOP 
                      00370 
000132 A082           00371     BTFSS A_SENSOR 
000134 EF?? F???      00372     GOTO MAIN_LOOP 
                      00373     
000138 EF?? F???      00374     GOTO    FINISH_REACHED
                      00375 
00013C                00376 FINISH_REACHED
00013C 0E00           00377     MOVLW IDLE
00013E 6E20           00378     MOVWF STATE
000140 EF?? F???      00379     GOTO MAIN_LOOP
                      00380     
                      00381 ;-------------------------------------------------------
                      00382 ; Rotinas de rotaçăo do motor
                      00383 ;-------------------------------------------------------
000144                00384 ROTATE_RIGHT
000144 0EF1           00385     MOVLW   0xF1           ; 0x01 (0001)
000146 6E8C           00386     MOVWF   LATD
000148 EC?? F???      00387     CALL    Delay_5ms
                      00388     
00014C 0EF4           00389     MOVLW   0xF4           ; 0x04 (0100)  
00014E 6E8C           00390     MOVWF   LATD
000150 EC?? F???      00391     CALL    Delay_5ms
                      00392     
MPASM 5.83                          MAIN.ASM   10-25-2025  16:25:44         PAGE  9


LOC  OBJECT CODE     LINE SOURCE TEXT
  VALUE

000154 0EF2           00393     MOVLW   0xF2           ; 0x02 (0010)
000156 6E8C           00394     MOVWF   LATD
000158 EC?? F???      00395     CALL    Delay_5ms
                      00396     
00015C 0EF8           00397     MOVLW   0xF8           ; 0x08 (1000)
00015E 6E8C           00398     MOVWF   LATD
000160 EC?? F???      00399     CALL    Delay_5ms
000164 0012           00400     RETURN
                      00401 
000166                00402 ROTATE_LEFT
000166 0E08           00403     MOVLW   0x08           ; 0x08 (1000)
000168 6E8C           00404     MOVWF   LATD
00016A EC?? F???      00405     CALL    Delay_5ms
                      00406     
00016E 0E02           00407     MOVLW   0x02           ; 0x02 (0010)
000170 6E8C           00408     MOVWF   LATD           
000172 EC?? F???      00409     CALL    Delay_5ms
                      00410     
000176 0E04           00411     MOVLW   0x04           ; 0x04 (0100)
000178 6E8C           00412     MOVWF   LATD
00017A EC?? F???      00413     CALL    Delay_5ms
                      00414     
00017E 0E01           00415     MOVLW   0x01           ; 0x01 (0001)
000180 6E8C           00416     MOVWF   LATD
000182 EC?? F???      00417     CALL    Delay_5ms
000186 0012           00418     RETURN
                      00419 ;=========================================================================
                      00420 ; Cálculo do número de estouros do Timer1 (Fosc = 8 MHz, prescaler 1:8)
                      00421 ;=========================================================================
                      00422 ; Tcy = Fosc / 4 = 8 MHz / 4 = 2 MHz ? 1 ciclo = 0,5 us
                      00423 ; Ttick = Tcy * prescaler = 0,5 us * 8 = 4 us
                      00424 ; Tempo 1 overflow = 65536 * Ttick ? 0,262 s
                      00425 ; Nş de estouros para 5 s = 5 / 0,262 ? 19 (Prefiro usar 20 para 5,24s)
                      00426 ;=========================================================================
                      00427 ;-------------------------------------------------------
                      00428 ; Rotina de delay de 5s
                      00429 ;-------------------------------------------------------
000188                00430 Delay_5s:
000188 6A21           00431     CLRF    TICKS              ; zera contador
00018A                00432 WAIT_LOOP:
00018A 5021           00433     MOVF    TICKS, W
00018C 0A16           00434     XORLW   16                 ; Z=1 quando TICKS == 16 (Ajuste Ciclos)
00018E A4D8           00435     BTFSS   STATUS, Z          ; se Z=0 -> executa GOTO WAIT_LOOP
000190 EF?? F???      00436     GOTO    WAIT_LOOP
000194 0012           00437     RETURN
                      00438 
                      00439 ;-------------------------------------------------------
                      00440 ; Rotina de delay 5ms
                      00441 ;-------------------------------------------------------
000196                00442 Delay_5ms:
000196 0E1F           00443     MOVLW   0x1F              ; Loop externo
000198 6E40           00444     MOVWF   0x40              ; Contador externo (usando 0x1F = 31)
00019A                00445 Delay_Outer_5ms:
MPASM 5.83                          MAIN.ASM   10-25-2025  16:25:44         PAGE 10


LOC  OBJECT CODE     LINE SOURCE TEXT
  VALUE

00019A 0E4F           00446     MOVLW   0x4F              ; Loop interno
00019C 6E41           00447     MOVWF   0x41              ; Contador interno (usando 0x4F = 79)
00019E                00448 Delay_Inner_5ms:
00019E 0000           00449     NOP                       ; 1 ciclo
0001A0 0000           00450     NOP                       ; 1 ciclo
0001A2 2E41           00451     DECFSZ  0x41, F           ; Decrementa contador interno
0001A4 EF?? F???      00452     GOTO    Delay_Inner_5ms   ; Continua loop interno
0001A8 2E40           00453     DECFSZ  0x40, F           ; Decrementa contador externo
0001AA EF?? F???      00454     GOTO    Delay_Outer_5ms   ; Continua loop externo
0001AE 0012           00455     RETURN
                      00456 
Warning[205]: Found directive in column 1. (END)
                      00457 END
MPASM 5.83                          MAIN.ASM   10-25-2025  16:25:44         PAGE 11


SYMBOL TABLE
  LABEL                             VALUE 

A                                 00000000
ABDEN                             00000000
ABDOVF                            00000007
ACCESS                            00000000
ACKDT                             00000005
ACKEN                             00000004
ACKSTAT                           00000006
ACQT0                             00000003
ACQT1                             00000004
ACQT2                             00000005
ACTVIE                            00000002
ACTVIF                            00000002
ADCON0                            00000FC2
ADCON1                            00000FC1
ADCON2                            00000FC0
ADCS0                             00000000
ADCS1                             00000001
ADCS2                             00000002
ADDEN                             00000003
ADDR0                             00000000
ADDR1                             00000001
ADDR2                             00000002
ADDR3                             00000003
ADDR4                             00000004
ADDR5                             00000005
ADDR6                             00000006
ADEN                              00000003
ADFM                              00000007
ADIE                              00000006
ADIF                              00000006
ADIP                              00000006
ADON                              00000000
ADRES                             00000FC3
ADRESH                            00000FC4
ADRESL                            00000FC3
AN0                               00000000
AN1                               00000001
AN2                               00000002
AN3                               00000003
AN4                               00000005
A_SENSOR                          PORTC, 0
BANKED                            00000001
BAUDCON                           00000FB8
BAUDCTL                           00000FB8
BCLIE                             00000003
BCLIF                             00000003
BCLIP                             00000003
BF                                00000000
BGST                              00000005
BLUE_LED                          LATA, 4
BOR                               00000000
BRG16                             00000003
BRGH                              00000002
MPASM 5.83                          MAIN.ASM   10-25-2025  16:25:44         PAGE 12


SYMBOL TABLE
  LABEL                             VALUE 

BSR                               00000FE0
BTOEE                             00000004
BTOEF                             00000004
BTSEE                             00000007
BTSEF                             00000007
B_SENSOR                          PORTC, 1
C                                 00000000
C1INV                             00000004
C1OUT                             00000006
C2INV                             00000005
C2OUT                             00000007
CCP1                              00000002
CCP1AS                            00000FB6
CCP1CON                           00000FBD
CCP1DEL                           00000FB7
CCP1IE                            00000002
CCP1IF                            00000002
CCP1IP                            00000002
CCP1M0                            00000000
CCP1M1                            00000001
CCP1M2                            00000002
CCP1M3                            00000003
CCP2CON                           00000FBA
CCP2IE                            00000000
CCP2IF                            00000000
CCP2IP                            00000000
CCP2M0                            00000000
CCP2M1                            00000001
CCP2M2                            00000002
CCP2M3                            00000003
CCPR1                             00000FBE
CCPR1H                            00000FBF
CCPR1L                            00000FBE
CCPR2                             00000FBB
CCPR2H                            00000FBC
CCPR2L                            00000FBB
CFGS                              00000006
CHS0                              00000002
CHS1                              00000003
CHS2                              00000004
CHS3                              00000005
CIS                               00000003
CK                                00000006
CK1SPP                            00000000
CK2SPP                            00000001
CKE                               00000006
CKP                               00000004
CLK1EN                            00000004
CLKCFG0                           00000006
CLKCFG1                           00000007
CM0                               00000000
CM1                               00000001
CM2                               00000002
MPASM 5.83                          MAIN.ASM   10-25-2025  16:25:44         PAGE 13


SYMBOL TABLE
  LABEL                             VALUE 

CMCON                             00000FB4
CMIE                              00000006
CMIF                              00000006
CMIP                              00000006
CRC16EE                           00000002
CRC16EF                           00000002
CRC5EE                            00000001
CRC5EF                            00000001
CREN                              00000004
CSEN                              00000005
CSRC                              00000007
CVR0                              00000000
CVR1                              00000001
CVR2                              00000002
CVR3                              00000003
CVRCON                            00000FB5
CVREF                             00000004
CVREN                             00000007
CVROE                             00000006
CVRR                              00000005
CVRSS                             00000004
D                                 00000005
DATA_ADDRESS                      00000005
DC                                00000001
DC1B0                             00000004
DC1B1                             00000005
DC2B0                             00000004
DC2B1                             00000005
DDRA                              TRISA
DDRB                              TRISB
DDRC                              TRISC
DDRD                              TRISD
DDRE                              TRISE
DFN8EE                            00000003
DFN8EF                            00000003
DIR                               00000002
DONE                              00000001
D_A                               00000005
D_NOT_A                           00000005
Delay_5ms                         00000196
Delay_5s                          00000188
Delay_Inner_5ms                   0000019E
Delay_Outer_5ms                   0000019A
ECCP1AS                           00000FB6
ECCP1CON                          00000FBD
ECCP1DEL                          00000FB7
ECCPAS0                           00000004
ECCPAS1                           00000005
ECCPAS2                           00000006
ECCPASE                           00000007
EEADR                             00000FA9
EECON1                            00000FA6
EECON2                            00000FA7
MPASM 5.83                          MAIN.ASM   10-25-2025  16:25:44         PAGE 14


SYMBOL TABLE
  LABEL                             VALUE 

EEDATA                            00000FA8
EEIE                              00000004
EEIF                              00000004
EEIP                              00000004
EEPGD                             00000007
ENDP0                             00000003
ENDP1                             00000004
ENDP2                             00000005
ENDP3                             00000006
EPCONDIS                          00000003
EPHSHK                            00000004
EPINEN                            00000001
EPOUTEN                           00000002
EPSTALL                           00000000
FAST                              00000001
FERR                              00000002
FINISH                            00000005
FINISH_REACHED                    0000013C
FINISH_ROUTINE                    0000011C
FLTS                              00000002
FREE                              00000004
FRM0                              00000000
FRM1                              00000001
FRM10                             00000002
FRM2                              00000002
FRM3                              00000003
FRM4                              00000004
FRM5                              00000005
FRM6                              00000006
FRM7                              00000007
FRM8                              00000000
FRM9                              00000001
FSEN                              00000002
FSR0                              00000000
FSR0H                             00000FEA
FSR0L                             00000FE9
FSR1                              00000001
FSR1H                             00000FE2
FSR1L                             00000FE1
FSR2                              00000002
FSR2H                             00000FDA
FSR2L                             00000FD9
GATE                              LATE, 0
GCEN                              00000007
GIE                               00000007
GIEH                              00000007
GIEL                              00000006
GIE_GIEH                          00000007
GO                                00000001
GO_DONE                           00000001
GO_NOT_DONE                       00000001
GREEN_LED                         LATA, 0
HIGH_ISR                          00000000
MPASM 5.83                          MAIN.ASM   10-25-2025  16:25:44         PAGE 15


SYMBOL TABLE
  LABEL                             VALUE 

HLVDCON                           00000FD2
HLVDEN                            00000004
HLVDIE                            00000002
HLVDIF                            00000002
HLVDIN                            00000005
HLVDIP                            00000002
HLVDL0                            00000000
HLVDL1                            00000001
HLVDL2                            00000002
HLVDL3                            00000003
I2C_DAT                           00000005
I2C_READ                          00000002
I2C_START                         00000003
I2C_STOP                          00000004
IDLE                              00000000
IDLEIE                            00000004
IDLEIF                            00000004
IDLEN                             00000007
IDLE_REACHED                      000000A2
IDLE_ROUTINE                      0000008C
INDF0                             00000FEF
INDF1                             00000FE7
INDF2                             00000FDF
INT0                              00000000
INT0E                             00000004
INT0F                             00000001
INT0IE                            00000004
INT0IF                            00000001
INT1                              00000001
INT1E                             00000003
INT1F                             00000000
INT1IE                            00000003
INT1IF                            00000000
INT1IP                            00000006
INT1P                             00000006
INT2                              00000002
INT2E                             00000004
INT2F                             00000001
INT2IE                            00000004
INT2IF                            00000001
INT2IP                            00000007
INT2P                             00000007
INTCON                            00000FF2
INTCON2                           00000FF1
INTCON3                           00000FF0
INTEDG0                           00000006
INTEDG1                           00000005
INTEDG2                           00000004
INTSRC                            00000007
IOFS                              00000002
IPEN                              00000007
IPR1                              00000F9F
IPR2                              00000FA2
MPASM 5.83                          MAIN.ASM   10-25-2025  16:25:44         PAGE 16


SYMBOL TABLE
  LABEL                             VALUE 

IRCF0                             00000004
IRCF1                             00000005
IRCF2                             00000006
IRVST                             00000005
IVRST                             00000005
LATA                              00000F89
LATA0                             00000000
LATA1                             00000001
LATA2                             00000002
LATA3                             00000003
LATA4                             00000004
LATA5                             00000005
LATA6                             00000006
LATB                              00000F8A
LATB0                             00000000
LATB1                             00000001
LATB2                             00000002
LATB3                             00000003
LATB4                             00000004
LATB5                             00000005
LATB6                             00000006
LATB7                             00000007
LATC                              00000F8B
LATC0                             00000000
LATC1                             00000001
LATC2                             00000002
LATC6                             00000006
LATC7                             00000007
LATD                              00000F8C
LATD0                             00000000
LATD1                             00000001
LATD2                             00000002
LATD3                             00000003
LATD4                             00000004
LATD5                             00000005
LATD6                             00000006
LATD7                             00000007
LATE                              00000F8D
LATE0                             00000000
LATE1                             00000001
LATE2                             00000002
LOW_ISR                           00000000
LVDCON                            00000FD2
LVDEN                             00000004
LVDIE                             00000002
LVDIF                             00000002
LVDIN                             00000005
LVDIP                             00000002
LVDL0                             00000000
LVDL1                             00000001
LVDL2                             00000002
LVDL3                             00000003
LVV0                              00000000
MPASM 5.83                          MAIN.ASM   10-25-2025  16:25:44         PAGE 17


SYMBOL TABLE
  LABEL                             VALUE 

LVV1                              00000001
LVV2                              00000002
LVV3                              00000003
MAIN                              00000000
MAIN_LOOP                         0000004C
M_BUTTON                          PORTB, 0
N                                 00000004
NOT_A                             00000005
NOT_ADDRESS                       00000005
NOT_BOR                           00000000
NOT_DONE                          00000001
NOT_IPEN                          00000007
NOT_PD                            00000002
NOT_POR                           00000001
NOT_RBPU                          00000007
NOT_RI                            00000004
NOT_T1SYNC                        00000002
NOT_T3SYNC                        00000002
NOT_TO                            00000003
NOT_W                             00000002
NOT_WRITE                         00000002
OERR                              00000001
OESPP                             00000002
OPEN                              00000003
OPEN_ROUTINE                      000000E2
ORANGE_LED                        LATA, 1
OSC2                              00000006
OSCCON                            00000FD3
OSCFIE                            00000007
OSCFIF                            00000007
OSCFIP                            00000007
OSCTUNE                           00000F9B
OSTS                              00000003
OV                                00000003
P                                 00000004
P1A                               00000002
P1M0                              00000006
P1M1                              00000007
PC                                00000FF9
PCFG0                             00000000
PCFG1                             00000001
PCFG2                             00000002
PCFG3                             00000003
PCL                               00000FF9
PCLATH                            00000FFA
PCLATU                            00000FFB
PD                                00000002
PDC0                              00000000
PDC1                              00000001
PDC2                              00000002
PDC3                              00000003
PDC4                              00000004
PDC5                              00000005
MPASM 5.83                          MAIN.ASM   10-25-2025  16:25:44         PAGE 18


SYMBOL TABLE
  LABEL                             VALUE 

PDC6                              00000006
PEIE                              00000006
PEIE_GIEL                         00000006
PEN                               00000002
PGC                               00000006
PGD                               00000007
PGM                               00000005
PIDEE                             00000000
PIDEF                             00000000
PIE1                              00000F9D
PIE2                              00000FA0
PIR1                              00000F9E
PIR2                              00000FA1
PKTDIS                            00000004
PLUSW0                            00000FEB
PLUSW1                            00000FE3
PLUSW2                            00000FDB
POR                               00000001
PORTA                             00000F80
PORTB                             00000F81
PORTC                             00000F82
PORTD                             00000F83
PORTE                             00000F84
POSTDEC0                          00000FED
POSTDEC1                          00000FE5
POSTDEC2                          00000FDD
POSTINC0                          00000FEE
POSTINC1                          00000FE6
POSTINC2                          00000FDE
PPB0                              00000000
PPB1                              00000001
PPBI                              00000001
PPBRST                            00000006
PR2                               00000FCB
PREINC0                           00000FEC
PREINC1                           00000FE4
PREINC2                           00000FDC
PROD                              00000FF3
PRODH                             00000FF4
PRODL                             00000FF3
PRSEN                             00000007
PSA                               00000003
PSSAC0                            00000002
PSSAC1                            00000003
PSSBD0                            00000000
PSSBD1                            00000001
P_SENSOR                          PORTC, 2
R                                 00000002
RA0                               00000000
RA1                               00000001
RA2                               00000002
RA3                               00000003
RA4                               00000004
MPASM 5.83                          MAIN.ASM   10-25-2025  16:25:44         PAGE 19


SYMBOL TABLE
  LABEL                             VALUE 

RA5                               00000005
RA6                               00000006
RB0                               00000000
RB1                               00000001
RB2                               00000002
RB3                               00000003
RB4                               00000004
RB5                               00000005
RB6                               00000006
RB7                               00000007
RBIE                              00000003
RBIF                              00000000
RBIP                              00000000
RBPU                              00000007
RC0                               00000000
RC1                               00000001
RC2                               00000002
RC4                               00000004
RC5                               00000005
RC6                               00000006
RC7                               00000007
RCEN                              00000003
RCIDL                             00000006
RCIE                              00000005
RCIF                              00000005
RCIP                              00000005
RCMT                              00000006
RCON                              00000FD0
RCREG                             00000FAE
RCSTA                             00000FAB
RD                                00000000
RD0                               00000000
RD1                               00000001
RD16                              00000007
RD2                               00000002
RD3                               00000003
RD4                               00000004
RD5                               00000005
RD6                               00000006
RD7                               00000007
RDPU                              00000007
RDSPP                             00000007
RE0                               00000000
RE1                               00000001
RE2                               00000002
RE3                               00000003
READ_WRITE                        00000002
RED_LED                           LATA, 3
RESUME                            00000002
RI                                00000004
RIGHT                             00000002
RIGHT_ROUTINE                     000000C4
ROTATE_LEFT                       00000166
MPASM 5.83                          MAIN.ASM   10-25-2025  16:25:44         PAGE 20


SYMBOL TABLE
  LABEL                             VALUE 

ROTATE_RIGHT                      00000144
RSEN                              00000001
RX                                00000007
RX9                               00000006
RX9D                              00000000
RXDTP                             00000005
R_NOT_W                           00000002
R_W                               00000002
S                                 00000003
SAVED_BSR                         00000024
SAVED_STATUS                      00000023
SAVED_W                           00000022
SBOREN                            00000006
SCKP                              00000004
SCS0                              00000000
SCS1                              00000001
SE0                               00000005
SEN                               00000000
SENDB                             00000003
SMP                               00000007
SOFIE                             00000006
SOFIF                             00000006
SPBRG                             00000FAF
SPBRGH                            00000FB0
SPEN                              00000007
SPP0                              00000000
SPP1                              00000001
SPP2                              00000002
SPP3                              00000003
SPP4                              00000004
SPP5                              00000005
SPP6                              00000006
SPP7                              00000007
SPPBUSY                           00000004
SPPCFG                            00000F63
SPPCON                            00000F65
SPPDATA                           00000F62
SPPEN                             00000000
SPPEPS                            00000F64
SPPIE                             00000007
SPPIF                             00000007
SPPIP                             00000007
SPPOWN                            00000001
SREN                              00000005
SSPADD                            00000FC8
SSPBUF                            00000FC9
SSPCON1                           00000FC6
SSPCON2                           00000FC5
SSPEN                             00000005
SSPIE                             00000003
SSPIF                             00000003
SSPIP                             00000003
SSPM0                             00000000
MPASM 5.83                          MAIN.ASM   10-25-2025  16:25:44         PAGE 21


SYMBOL TABLE
  LABEL                             VALUE 

SSPM1                             00000001
SSPM2                             00000002
SSPM3                             00000003
SSPOV                             00000006
SSPSTAT                           00000FC7
STALLIE                           00000005
STALLIF                           00000005
START                             00000001
START_ROUTINE                     000000AA
STATE                             00000020
STATUS                            00000FD8
STKFUL                            00000007
STKOVF                            00000007
STKPTR                            00000FFC
STKPTR0                           00000000
STKPTR1                           00000001
STKPTR2                           00000002
STKPTR3                           00000003
STKPTR4                           00000004
STKUNF                            00000006
SUSPND                            00000001
SWDTE                             00000000
SWDTEN                            00000000
SYNC                              00000004
T08BIT                            00000006
T0CKI                             00000004
T0CON                             00000FD5
T0CS                              00000005
T0IE                              00000005
T0IF                              00000002
T0IP                              00000002
T0PS0                             00000000
T0PS1                             00000001
T0PS2                             00000002
T0SE                              00000004
T13CKI                            00000000
T1CKPS0                           00000004
T1CKPS1                           00000005
T1CON                             00000FCD
T1OSCEN                           00000003
T1OSI                             00000001
T1OSO                             00000000
T1RUN                             00000006
T1SYNC                            00000002
T2CKPS0                           00000000
T2CKPS1                           00000001
T2CON                             00000FCA
T2OUTPS0                          00000003
T2OUTPS1                          00000004
T2OUTPS2                          00000005
T2OUTPS3                          00000006
T3CCP1                            00000003
T3CCP2                            00000006
MPASM 5.83                          MAIN.ASM   10-25-2025  16:25:44         PAGE 22


SYMBOL TABLE
  LABEL                             VALUE 

T3CKPS0                           00000004
T3CKPS1                           00000005
T3CON                             00000FB1
T3NSYNC                           00000002
T3SYNC                            00000002
TABLAT                            00000FF5
TBLPTR                            00000FF6
TBLPTRH                           00000FF7
TBLPTRL                           00000FF6
TBLPTRU                           00000FF8
TICKS                             00000021
TIME                              00000004
TIME_ROUTINE                      00000102
TMR0                              00000FD6
TMR0H                             00000FD7
TMR0IE                            00000005
TMR0IF                            00000002
TMR0IP                            00000002
TMR0L                             00000FD6
TMR0ON                            00000007
TMR1                              00000FCE
TMR1CS                            00000001
TMR1H                             00000FCF
TMR1IE                            00000000
TMR1IF                            00000000
TMR1IP                            00000000
TMR1L                             00000FCE
TMR1ON                            00000000
TMR2                              00000FCC
TMR2IE                            00000001
TMR2IF                            00000001
TMR2IP                            00000001
TMR2ON                            00000002
TMR3                              00000FB2
TMR3CS                            00000001
TMR3H                             00000FB3
TMR3IE                            00000001
TMR3IF                            00000001
TMR3IP                            00000001
TMR3L                             00000FB2
TMR3ON                            00000000
TO                                00000003
TOS                               00000FFD
TOSH                              00000FFE
TOSL                              00000FFD
TOSU                              00000FFF
TOUTPS0                           00000003
TOUTPS1                           00000004
TOUTPS2                           00000005
TOUTPS3                           00000006
TRISA                             00000F92
TRISA0                            00000000
TRISA1                            00000001
MPASM 5.83                          MAIN.ASM   10-25-2025  16:25:44         PAGE 23


SYMBOL TABLE
  LABEL                             VALUE 

TRISA2                            00000002
TRISA3                            00000003
TRISA4                            00000004
TRISA5                            00000005
TRISA6                            00000006
TRISB                             00000F93
TRISB0                            00000000
TRISB1                            00000001
TRISB2                            00000002
TRISB3                            00000003
TRISB4                            00000004
TRISB5                            00000005
TRISB6                            00000006
TRISB7                            00000007
TRISC                             00000F94
TRISC0                            00000000
TRISC1                            00000001
TRISC2                            00000002
TRISC6                            00000006
TRISC7                            00000007
TRISD                             00000F95
TRISD0                            00000000
TRISD1                            00000001
TRISD2                            00000002
TRISD3                            00000003
TRISD4                            00000004
TRISD5                            00000005
TRISD6                            00000006
TRISD7                            00000007
TRISE                             00000F96
TRISE0                            00000000
TRISE1                            00000001
TRISE2                            00000002
TRMT                              00000001
TRNIE                             00000003
TRNIF                             00000003
TUN0                              00000000
TUN1                              00000001
TUN2                              00000002
TUN3                              00000003
TUN4                              00000004
TX                                00000006
TX9                               00000006
TX9D                              00000000
TXCKP                             00000004
TXEN                              00000005
TXIE                              00000004
TXIF                              00000004
TXIP                              00000004
TXREG                             00000FAD
TXSTA                             00000FAC
UA                                00000001
UADDR                             00000F6E
MPASM 5.83                          MAIN.ASM   10-25-2025  16:25:44         PAGE 24


SYMBOL TABLE
  LABEL                             VALUE 

UCFG                              00000F6F
UCON                              00000F6D
UEIE                              00000F6B
UEIR                              00000F6A
UEP0                              00000F70
UEP1                              00000F71
UEP10                             00000F7A
UEP11                             00000F7B
UEP12                             00000F7C
UEP13                             00000F7D
UEP14                             00000F7E
UEP15                             00000F7F
UEP2                              00000F72
UEP3                              00000F73
UEP4                              00000F74
UEP5                              00000F75
UEP6                              00000F76
UEP7                              00000F77
UEP8                              00000F78
UEP9                              00000F79
UERRIE                            00000001
UERRIF                            00000001
UFRM                              00000F66
UFRMH                             00000F67
UFRML                             00000F66
UIE                               00000F69
UIR                               00000F68
UOEMON                            00000006
UPUEN                             00000004
URSTIE                            00000000
URSTIF                            00000000
USBEN                             00000003
USBIE                             00000005
USBIF                             00000005
USBIP                             00000005
USTAT                             00000F6C
UTEYE                             00000007
UTRDIS                            00000003
VCFG0                             00000004
VCFG1                             00000005
VDIRMAG                           00000007
VREFM                             00000002
VREFP                             00000003
W                                 00000000
WAIT_LOOP                         0000018A
WCOL                              00000007
WDTCON                            00000FD1
WR                                00000001
WREG                              00000FE8
WREN                              00000002
WRERR                             00000003
WRSPP                             00000006
WS0                               00000000
MPASM 5.83                          MAIN.ASM   10-25-2025  16:25:44         PAGE 25


SYMBOL TABLE
  LABEL                             VALUE 

WS1                               00000001
WS2                               00000002
WS3                               00000003
WUE                               00000001
YELLOW_LED                        LATA, 2
Z                                 00000002
_BORV_0_2L                        000000E7
_BORV_1_2L                        000000EF
_BORV_2_2L                        000000F7
_BORV_3_2L                        000000FF
_BOR_OFF_2L                       000000F9
_BOR_ON_2L                        000000FF
_BOR_ON_ACTIVE_2L                 000000FD
_BOR_SOFT_2L                      000000FB
_CCP2MX_OFF_3H                    000000FE
_CCP2MX_ON_3H                     000000FF
_CONFIG1H                         00300001
_CONFIG1L                         00300000
_CONFIG2H                         00300003
_CONFIG2L                         00300002
_CONFIG3H                         00300005
_CONFIG4L                         00300006
_CONFIG5H                         00300009
_CONFIG5L                         00300008
_CONFIG6H                         0030000B
_CONFIG6L                         0030000A
_CONFIG7H                         0030000D
_CONFIG7L                         0030000C
_CP0_OFF_5L                       000000FF
_CP0_ON_5L                        000000FE
_CP1_OFF_5L                       000000FF
_CP1_ON_5L                        000000FD
_CP2_OFF_5L                       000000FF
_CP2_ON_5L                        000000FB
_CP3_OFF_5L                       000000FF
_CP3_ON_5L                        000000F7
_CPB_OFF_5H                       000000FF
_CPB_ON_5H                        000000BF
_CPD_OFF_5H                       000000FF
_CPD_ON_5H                        0000007F
_CPUDIV_OSC1_PLL2_1L              000000E7
_CPUDIV_OSC2_PLL3_1L              000000EF
_CPUDIV_OSC3_PLL4_1L              000000F7
_CPUDIV_OSC4_PLL6_1L              000000FF
_DEBUG_OFF_4L                     000000FF
_DEBUG_ON_4L                      0000007F
_DEVID1                           003FFFFE
_DEVID2                           003FFFFF
_EBTR0_OFF_7L                     000000FF
_EBTR0_ON_7L                      000000FE
_EBTR1_OFF_7L                     000000FF
_EBTR1_ON_7L                      000000FD
_EBTR2_OFF_7L                     000000FF
MPASM 5.83                          MAIN.ASM   10-25-2025  16:25:44         PAGE 26


SYMBOL TABLE
  LABEL                             VALUE 

_EBTR2_ON_7L                      000000FB
_EBTR3_OFF_7L                     000000FF
_EBTR3_ON_7L                      000000F7
_EBTRB_OFF_7H                     000000FF
_EBTRB_ON_7H                      000000BF
_FCMEN_OFF_1H                     000000BF
_FCMEN_ON_1H                      000000FF
_FOSC_ECIO_EC_1H                  000000F4
_FOSC_ECPLLIO_EC_1H               000000F6
_FOSC_ECPLL_EC_1H                 000000F7
_FOSC_EC_EC_1H                    000000F5
_FOSC_HSPLL_HS_1H                 000000FE
_FOSC_HS_1H                       000000FC
_FOSC_INTOSCIO_EC_1H              000000F8
_FOSC_INTOSC_EC_1H                000000F9
_FOSC_INTOSC_HS_1H                000000FB
_FOSC_INTOSC_XT_1H                000000FA
_FOSC_XTPLL_XT_1H                 000000F2
_FOSC_XT_XT_1H                    000000F0
_HIGH_ISR_DONE                    00000014
_ICPRT_OFF_4L                     000000DF
_ICPRT_ON_4L                      000000FF
_IDLOC0                           00200000
_IDLOC1                           00200001
_IDLOC2                           00200002
_IDLOC3                           00200003
_IDLOC4                           00200004
_IDLOC5                           00200005
_IDLOC6                           00200006
_IDLOC7                           00200007
_IESO_OFF_1H                      0000007F
_IESO_ON_1H                       000000FF
_LPT1OSC_OFF_3H                   000000FB
_LPT1OSC_ON_3H                    000000FF
_LVP_OFF_4L                       000000FB
_LVP_ON_4L                        000000FF
_MCLRE_OFF_3H                     0000007F
_MCLRE_ON_3H                      000000FF
_PBADEN_OFF_3H                    000000FD
_PBADEN_ON_3H                     000000FF
_PLLDIV_10_1L                     000000FE
_PLLDIV_12_1L                     000000FF
_PLLDIV_1_1L                      000000F8
_PLLDIV_2_1L                      000000F9
_PLLDIV_3_1L                      000000FA
_PLLDIV_4_1L                      000000FB
_PLLDIV_5_1L                      000000FC
_PLLDIV_6_1L                      000000FD
_PWRT_OFF_2L                      000000FF
_PWRT_ON_2L                       000000FE
_STVREN_OFF_4L                    000000FE
_STVREN_ON_4L                     000000FF
_USBDIV_1_1L                      000000DF
MPASM 5.83                          MAIN.ASM   10-25-2025  16:25:44         PAGE 27


SYMBOL TABLE
  LABEL                             VALUE 

_USBDIV_2_1L                      000000FF
_VREGEN_OFF_2L                    000000DF
_VREGEN_ON_2L                     000000FF
_WDTPS_1024_2H                    000000F5
_WDTPS_128_2H                     000000EF
_WDTPS_16384_2H                   000000FD
_WDTPS_16_2H                      000000E9
_WDTPS_1_2H                       000000E1
_WDTPS_2048_2H                    000000F7
_WDTPS_256_2H                     000000F1
_WDTPS_2_2H                       000000E3
_WDTPS_32768_2H                   000000FF
_WDTPS_32_2H                      000000EB
_WDTPS_4096_2H                    000000F9
_WDTPS_4_2H                       000000E5
_WDTPS_512_2H                     000000F3
_WDTPS_64_2H                      000000ED
_WDTPS_8192_2H                    000000FB
_WDTPS_8_2H                       000000E7
_WDT_OFF_2H                       000000FE
_WDT_ON_2H                        000000FF
_WRT0_OFF_6L                      000000FF
_WRT0_ON_6L                       000000FE
_WRT1_OFF_6L                      000000FF
_WRT1_ON_6L                       000000FD
_WRT2_OFF_6L                      000000FF
_WRT2_ON_6L                       000000FB
_WRT3_OFF_6L                      000000FF
_WRT3_ON_6L                       000000F7
_WRTB_OFF_6H                      000000FF
_WRTB_ON_6H                       000000BF
_WRTC_OFF_6H                      000000FF
_WRTC_ON_6H                       000000DF
_WRTD_OFF_6H                      000000FF
_WRTD_ON_6H                       0000007F
_XINST_OFF_4L                     000000BF
_XINST_ON_4L                      000000FF
__18F4550                         00000001

Errors   :     0
Warnings :     4 reported,     0 suppressed
Messages :     0 reported,     0 suppressed

